ccopy_reg
_reconstructor
p0
(cmadgraph.core.base_objects
Model
p1
c__builtin__
dict
p2
(dp3
S'functions'
p4
(lp5
g0
(cRS.object_library
Function
p6
c__builtin__
object
p7
Ntp8
Rp9
(dp10
S'expr'
p11
S'z.conjugate()'
p12
sS'name'
p13
S'complexconjugate'
p14
sS'arguments'
p15
(S'z'
p16
tp17
sbag0
(g6
g7
Ntp18
Rp19
(dp20
g11
S'z.real'
p21
sg13
S're'
p22
sg15
(g16
tp23
sbag0
(g6
g7
Ntp24
Rp25
(dp26
g11
S'z.imag'
p27
sg13
S'im'
p28
sg15
(g16
tp29
sbag0
(g6
g7
Ntp30
Rp31
(dp32
g11
S'1./cmath.cos(z)'
p33
sg13
S'sec'
p34
sg15
(g16
tp35
sbag0
(g6
g7
Ntp36
Rp37
(dp38
g11
S'cmath.acos(1./z)'
p39
sg13
S'asec'
p40
sg15
(g16
tp41
sbag0
(g6
g7
Ntp42
Rp43
(dp44
g11
S'1./cmath.sin(z)'
p45
sg13
S'csc'
p46
sg15
(g16
tp47
sbag0
(g6
g7
Ntp48
Rp49
(dp50
g11
S'cmath.asin(1./z)'
p51
sg13
S'acsc'
p52
sg15
(g16
tp53
sbasS'interaction_dict'
p54
(dp55
sg13
S'RS'
p56
sS'ref_dict_to0'
p57
(dp58
sS'interactions'
p59
g0
(cmadgraph.core.base_objects
InteractionList
p60
c__builtin__
list
p61
(lp62
g0
(cmadgraph.core.base_objects
Interaction
p63
g2
(dp64
S'particles'
p65
g0
(cmadgraph.core.base_objects
ParticleList
p66
g61
(lp67
g0
(cmadgraph.core.base_objects
Particle
p68
g2
(dp69
S'texname'
p70
S'\\phi'
p71
sS'propagating'
p72
I01
sg13
S'h'
p73
sS'self_antipart'
p74
I01
sS'color'
p75
I1
sS'width'
p76
S'WH'
p77
sS'charge'
p78
F0.0
sS'mass'
p79
S'MH'
p80
sS'antiname'
p81
S'h'
p82
sS'LeptonNumber'
p83
I0
sS'line'
p84
S'dashed'
p85
sS'is_part'
p86
I01
sS'spin'
p87
I1
sS'antitexname'
p88
g71
sS'pdg_code'
p89
I25
stp90
Rp91
ag91
ag91
ag91
atp92
Rp93
sS'lorentz'
p94
(lp95
S'SSSS1'
p96
asg75
(lp97
g0
(cmadgraph.core.color_algebra
ColorString
p98
g61
(lp99
tp100
Rp101
(dp102
S'coeff'
p103
cfractions
Fraction
p104
(S'1'
p105
tp106
Rp107
sS'is_imaginary'
p108
I00
sS'Nc_power'
p109
I0
sbasS'id'
p110
I1
sS'orders'
p111
(dp112
S'QED'
p113
I2
ssS'couplings'
p114
(dp115
(I0
I0
tp116
S'GC_20'
p117
sstp118
Rp119
ag0
(g63
g2
(dp120
g65
g0
(g66
g61
(lp121
g91
ag91
ag91
atp122
Rp123
sg94
(lp124
S'SSS1'
p125
asg75
(lp126
g0
(g98
g61
(lp127
tp128
Rp129
(dp130
g103
g104
(g105
tp131
Rp132
sg108
I00
sg109
I0
sbasg110
I2
sg111
(dp133
g113
I1
ssg114
(dp134
(I0
I0
tp135
S'GC_64'
p136
sstp137
Rp138
ag0
(g63
g2
(dp139
g65
g0
(g66
g61
(lp140
g0
(g68
g2
(dp141
g70
S'G'
p142
sg72
I01
sg13
S'g'
p143
sg74
I01
sg75
I8
sg76
S'ZERO'
p144
sg78
F0.0
sg79
g144
sg81
S'g'
p145
sg83
I0
sg84
S'curly'
p146
sg86
I01
sg87
I3
sg88
g142
sg89
I21
stp147
Rp148
ag148
ag148
atp149
Rp150
sg94
(lp151
S'VVV1'
p152
asg75
(lp153
g0
(g98
g61
(lp154
cmadgraph.core.color_algebra
f
p155
(I0
I1
I2
tp156
Rp157
atp158
Rp159
(dp160
g103
g104
(g105
tp161
Rp162
sg108
I00
sg109
I0
sbasg110
I3
sg111
(dp163
S'QCD'
p164
I1
ssg114
(dp165
(I0
I0
tp166
S'GC_4'
p167
sstp168
Rp169
ag0
(g63
g2
(dp170
g65
g0
(g66
g61
(lp171
g148
ag148
ag148
ag148
atp172
Rp173
sg94
(lp174
S'VVVV1'
p175
aS'VVVV3'
p176
aS'VVVV4'
p177
asg75
(lp178
g0
(g98
g61
(lp179
g155
(I-1
I0
I1
tp180
Rp181
ag155
(I2
I3
I-1
tp182
Rp183
atp184
Rp185
(dp186
g103
g104
(g105
tp187
Rp188
sg108
I00
sg109
I0
sbag0
(g98
g61
(lp189
g155
(I-1
I0
I2
tp190
Rp191
ag155
(I1
I3
I-1
tp192
Rp193
atp194
Rp195
(dp196
g103
g104
(g105
tp197
Rp198
sg108
I00
sg109
I0
sbag0
(g98
g61
(lp199
g155
(I-1
I0
I3
tp200
Rp201
ag155
(I1
I2
I-1
tp202
Rp203
atp204
Rp205
(dp206
g103
g104
(g105
tp207
Rp208
sg108
I00
sg109
I0
sbasg110
I4
sg111
(dp209
g164
I2
ssg114
(dp210
(I0
I0
tp211
S'GC_6'
p212
s(I1
I1
tp213
g212
s(I2
I2
tp214
g212
sstp215
Rp216
ag0
(g63
g2
(dp217
g65
g0
(g66
g61
(lp218
g91
ag91
ag0
(g68
g2
(dp219
g70
S'y'
p220
sg72
I01
sg13
S'y'
p221
sg74
I01
sg75
I1
sg76
g144
sg78
F0.0
sg79
S'MGr'
p222
sg81
S'y'
p223
sg83
I0
sg84
S'double'
p224
sg86
I01
sg87
I5
sg88
g220
sg89
I9000006
stp225
Rp226
atp227
Rp228
sg94
(lp229
S'SST1'
p230
aS'SST2'
p231
asg75
(lp232
g0
(g98
g61
(lp233
tp234
Rp235
(dp236
g103
g104
(g105
tp237
Rp238
sg108
I00
sg109
I0
sbasg110
I5
sg111
(dp239
S'QTD'
p240
I1
ssg114
(dp241
(I0
I1
tp242
S'GC_12'
p243
s(I0
I0
tp244
S'GC_71'
p245
sstp246
Rp247
ag0
(g63
g2
(dp248
g65
g0
(g66
g61
(lp249
g0
(g68
g2
(dp250
g70
S'A'
p251
sg72
I01
sg13
S'a'
p252
sg74
I01
sg75
I1
sg76
g144
sg78
F0.0
sg79
g144
sg81
S'a'
p253
sg83
I0
sg84
S'wavy'
p254
sg86
I01
sg87
I3
sg88
g251
sg89
I22
stp255
Rp256
ag256
ag226
atp257
Rp258
sg94
(lp259
S'VVT1'
p260
aS'VVT3'
p261
asg75
(lp262
g0
(g98
g61
(lp263
tp264
Rp265
(dp266
g103
g104
(g105
tp267
Rp268
sg108
I00
sg109
I0
sbasg110
I6
sg111
(dp269
g240
I1
ssg114
(dp270
(I0
I1
tp271
S'GC_62'
p272
s(I0
I0
tp273
g243
sstp274
Rp275
ag0
(g63
g2
(dp276
g65
g0
(g66
g61
(lp277
g148
ag148
ag226
atp278
Rp279
sg94
(lp280
S'VVT4'
p281
asg75
(lp282
g0
(g98
g61
(lp283
cmadgraph.core.color_algebra
Tr
p284
(I0
I1
tp285
Rp286
atp287
Rp288
(dp289
g103
g104
(S'2'
p290
tp291
Rp292
sg108
I00
sg109
I0
sbasg110
I7
sg111
(dp293
g240
I1
ssg114
(dp294
(I0
I0
tp295
S'GC_11'
p296
sstp297
Rp298
ag0
(g63
g2
(dp299
g65
g0
(g66
g61
(lp300
g0
(g68
g2
(dp301
g70
S'W+'
p302
sg86
I00
sg13
S'w+'
p303
sg74
I00
sg75
I1
sg76
S'WW'
p304
sg78
F1.0
sg79
S'MW'
p305
sg83
I0
sg81
S'w-'
p306
sg84
g254
sg72
I01
sg87
I3
sg88
g302
sg89
I24
stp307
Rp308
ag0
(g68
g2
(dp309
g70
g302
sg72
I01
sg13
g303
sg74
I00
sg75
I1
sg76
g304
sg78
F1.0
sg79
g305
sg81
g306
sg83
I0
sg84
g254
sg86
I01
sg87
I3
sg88
g302
sg89
I24
stp310
Rp311
ag226
atp312
Rp313
sg94
(lp314
S'VVT2'
p315
ag261
asg75
(lp316
g0
(g98
g61
(lp317
tp318
Rp319
(dp320
g103
g104
(g105
tp321
Rp322
sg108
I00
sg109
I0
sbasg110
I8
sg111
g293
sg114
(dp323
(I0
I1
tp324
g296
s(I0
I0
tp325
S'GC_68'
p326
sstp327
Rp328
ag0
(g63
g2
(dp329
g65
g0
(g66
g61
(lp330
g0
(g68
g2
(dp331
g70
S'Z'
p332
sg72
I01
sg13
S'z'
p333
sg74
I01
sg75
I1
sg76
S'WZ'
p334
sg78
F0.0
sg79
S'MZ'
p335
sg81
S'z'
p336
sg83
I0
sg84
g254
sg86
I01
sg87
I3
sg88
g332
sg89
I23
stp337
Rp338
ag338
ag226
atp339
Rp340
sg94
(lp341
g315
ag261
asg75
(lp342
g0
(g98
g61
(lp343
tp344
Rp345
(dp346
g103
g104
(g105
tp347
Rp348
sg108
I00
sg109
I0
sbasg110
I9
sg111
g269
sg114
(dp349
(I0
I1
tp350
g272
s(I0
I0
tp351
S'GC_72'
p352
sstp353
Rp354
ag0
(g63
g2
(dp355
g65
g0
(g66
g61
(lp356
g148
ag148
ag148
ag226
atp357
Rp358
sg94
(lp359
S'VVVT1'
p360
asg75
(lp361
g0
(g98
g61
(lp362
g155
(I0
I1
I2
tp363
Rp364
atp365
Rp366
(dp367
g103
g104
(g105
tp368
Rp369
sg108
I00
sg109
I0
sbasg110
I10
sg111
(dp370
g240
I1
sg164
I1
ssg114
(dp371
(I0
I0
tp372
S'GC_18'
p373
sstp374
Rp375
ag0
(g63
g2
(dp376
g65
g0
(g66
g61
(lp377
g148
ag148
ag148
ag148
ag226
atp378
Rp379
sg94
(lp380
S'VVVVT1'
p381
aS'VVVVT2'
p382
aS'VVVVT5'
p383
asg75
(lp384
g0
(g98
g61
(lp385
g155
(I-1
I0
I1
tp386
Rp387
ag155
(I2
I3
I-1
tp388
Rp389
atp390
Rp391
(dp392
g103
g104
(g105
tp393
Rp394
sg108
I00
sg109
I0
sbag0
(g98
g61
(lp395
g155
(I-1
I0
I2
tp396
Rp397
ag155
(I1
I3
I-1
tp398
Rp399
atp400
Rp401
(dp402
g103
g104
(g105
tp403
Rp404
sg108
I00
sg109
I0
sbag0
(g98
g61
(lp405
g155
(I-1
I0
I3
tp406
Rp407
ag155
(I1
I2
I-1
tp408
Rp409
atp410
Rp411
(dp412
g103
g104
(g105
tp413
Rp414
sg108
I00
sg109
I0
sbasg110
I11
sg111
(dp415
g240
I1
sg164
I2
ssg114
(dp416
(I0
I0
tp417
S'GC_19'
p418
s(I1
I1
tp419
g418
s(I2
I2
tp420
g418
sstp421
Rp422
ag0
(g63
g2
(dp423
g65
g0
(g66
g61
(lp424
g91
ag91
ag91
ag91
ag226
atp425
Rp426
sg94
(lp427
S'SSSST1'
p428
asg75
(lp429
g0
(g98
g61
(lp430
tp431
Rp432
(dp433
g103
g104
(g105
tp434
Rp435
sg108
I00
sg109
I0
sbasg110
I12
sg111
(dp436
g240
I1
sg113
I2
ssg114
(dp437
(I0
I0
tp438
S'GC_21'
p439
sstp440
Rp441
ag0
(g63
g2
(dp442
g65
g0
(g66
g61
(lp443
g91
ag91
ag91
ag226
atp444
Rp445
sg94
(lp446
S'SSST1'
p447
asg75
(lp448
g0
(g98
g61
(lp449
tp450
Rp451
(dp452
g103
g104
(g105
tp453
Rp454
sg108
I00
sg109
I0
sbasg110
I13
sg111
(dp455
g240
I1
sg113
I1
ssg114
(dp456
(I0
I0
tp457
S'GC_65'
p458
sstp459
Rp460
ag0
(g63
g2
(dp461
g65
g0
(g66
g61
(lp462
g256
ag308
ag311
atp463
Rp464
sg94
(lp465
g152
asg75
(lp466
g0
(g98
g61
(lp467
tp468
Rp469
(dp470
g103
g104
(g105
tp471
Rp472
sg108
I00
sg109
I0
sbasg110
I14
sg111
(dp473
g113
I1
ssg114
(dp474
(I0
I0
tp475
S'GC_54'
p476
sstp477
Rp478
ag0
(g63
g2
(dp479
g65
g0
(g66
g61
(lp480
g256
ag308
ag311
ag226
atp481
Rp482
sg94
(lp483
g360
asg75
(lp484
g0
(g98
g61
(lp485
tp486
Rp487
(dp488
g103
g104
(g105
tp489
Rp490
sg108
I00
sg109
I0
sbasg110
I15
sg111
(dp491
g240
I1
sg113
I1
ssg114
(dp492
(I0
I0
tp493
S'GC_15'
p494
sstp495
Rp496
ag0
(g63
g2
(dp497
g65
g0
(g66
g61
(lp498
g308
ag311
ag91
ag91
atp499
Rp500
sg94
(lp501
S'VVSS1'
p502
asg75
(lp503
g0
(g98
g61
(lp504
tp505
Rp506
(dp507
g103
g104
(g105
tp508
Rp509
sg108
I00
sg109
I0
sbasg110
I16
sg111
(dp510
g113
I2
ssg114
(dp511
(I0
I0
tp512
S'GC_22'
p513
sstp514
Rp515
ag0
(g63
g2
(dp516
g65
g0
(g66
g61
(lp517
g308
ag311
ag91
atp518
Rp519
sg94
(lp520
S'VVS1'
p521
asg75
(lp522
g0
(g98
g61
(lp523
tp524
Rp525
(dp526
g103
g104
(g105
tp527
Rp528
sg108
I00
sg109
I0
sbasg110
I17
sg111
(dp529
g113
I1
ssg114
(dp530
(I0
I0
tp531
S'GC_66'
p532
sstp533
Rp534
ag0
(g63
g2
(dp535
g65
g0
(g66
g61
(lp536
g256
ag256
ag308
ag311
atp537
Rp538
sg94
(lp539
S'VVVV2'
p540
asg75
(lp541
g0
(g98
g61
(lp542
tp543
Rp544
(dp545
g103
g104
(g105
tp546
Rp547
sg108
I00
sg109
I0
sbasg110
I18
sg111
(dp548
g113
I2
ssg114
(dp549
(I0
I0
tp550
S'GC_58'
p551
sstp552
Rp553
ag0
(g63
g2
(dp554
g65
g0
(g66
g61
(lp555
g308
ag311
ag338
atp556
Rp557
sg94
(lp558
g152
asg75
(lp559
g0
(g98
g61
(lp560
tp561
Rp562
(dp563
g103
g104
(g105
tp564
Rp565
sg108
I00
sg109
I0
sbasg110
I19
sg111
(dp566
g113
I1
ssg114
(dp567
(I0
I0
tp568
S'GC_7'
p569
sstp570
Rp571
ag0
(g63
g2
(dp572
g65
g0
(g66
g61
(lp573
g308
ag311
ag91
ag91
ag226
atp574
Rp575
sg94
(lp576
S'VVSST1'
p577
asg75
(lp578
g0
(g98
g61
(lp579
tp580
Rp581
(dp582
g103
g104
(g105
tp583
Rp584
sg108
I00
sg109
I0
sbasg110
I20
sg111
(dp585
g240
I1
sg113
I2
ssg114
(dp586
(I0
I0
tp587
S'GC_23'
p588
sstp589
Rp590
ag0
(g63
g2
(dp591
g65
g0
(g66
g61
(lp592
g308
ag311
ag91
ag226
atp593
Rp594
sg94
(lp595
S'VVST1'
p596
asg75
(lp597
g0
(g98
g61
(lp598
tp599
Rp600
(dp601
g103
g104
(g105
tp602
Rp603
sg108
I00
sg109
I0
sbasg110
I21
sg111
(dp604
g240
I1
sg113
I1
ssg114
(dp605
(I0
I0
tp606
S'GC_67'
p607
sstp608
Rp609
ag0
(g63
g2
(dp610
g65
g0
(g66
g61
(lp611
g256
ag256
ag308
ag311
ag226
atp612
Rp613
sg94
(lp614
S'VVVVT4'
p615
asg75
(lp616
g0
(g98
g61
(lp617
tp618
Rp619
(dp620
g103
g104
(g105
tp621
Rp622
sg108
I00
sg109
I0
sbasg110
I22
sg111
(dp623
g240
I1
sg113
I2
ssg114
(dp624
(I0
I0
tp625
S'GC_16'
p626
sstp627
Rp628
ag0
(g63
g2
(dp629
g65
g0
(g66
g61
(lp630
g308
ag311
ag338
ag226
atp631
Rp632
sg94
(lp633
g360
asg75
(lp634
g0
(g98
g61
(lp635
tp636
Rp637
(dp638
g103
g104
(g105
tp639
Rp640
sg108
I00
sg109
I0
sbasg110
I23
sg111
(dp641
g240
I1
sg113
I1
ssg114
(dp642
(I0
I0
tp643
S'GC_50'
p644
sstp645
Rp646
ag0
(g63
g2
(dp647
g65
g0
(g66
g61
(lp648
g308
ag308
ag311
ag311
atp649
Rp650
sg94
(lp651
g540
asg75
(lp652
g0
(g98
g61
(lp653
tp654
Rp655
(dp656
g103
g104
(g105
tp657
Rp658
sg108
I00
sg109
I0
sbasg110
I24
sg111
(dp659
g113
I2
ssg114
(dp660
(I0
I0
tp661
S'GC_8'
p662
sstp663
Rp664
ag0
(g63
g2
(dp665
g65
g0
(g66
g61
(lp666
g308
ag308
ag311
ag311
ag226
atp667
Rp668
sg94
(lp669
g615
asg75
(lp670
g0
(g98
g61
(lp671
tp672
Rp673
(dp674
g103
g104
(g105
tp675
Rp676
sg108
I00
sg109
I0
sbasg110
I25
sg111
(dp677
g240
I1
sg113
I2
ssg114
(dp678
(I0
I0
tp679
S'GC_24'
p680
sstp681
Rp682
ag0
(g63
g2
(dp683
g65
g0
(g66
g61
(lp684
g256
ag308
ag311
ag338
atp685
Rp686
sg94
(lp687
S'VVVV5'
p688
asg75
(lp689
g0
(g98
g61
(lp690
tp691
Rp692
(dp693
g103
g104
(g105
tp694
Rp695
sg108
I00
sg109
I0
sbasg110
I26
sg111
(dp696
g113
I2
ssg114
(dp697
(I0
I0
tp698
S'GC_55'
p699
sstp700
Rp701
ag0
(g63
g2
(dp702
g65
g0
(g66
g61
(lp703
g256
ag308
ag311
ag338
ag226
atp704
Rp705
sg94
(lp706
S'VVVVT3'
p707
asg75
(lp708
g0
(g98
g61
(lp709
tp710
Rp711
(dp712
g103
g104
(g105
tp713
Rp714
sg108
I00
sg109
I0
sbasg110
I27
sg111
(dp715
g240
I1
sg113
I2
ssg114
(dp716
(I0
I0
tp717
S'GC_51'
p718
sstp719
Rp720
ag0
(g63
g2
(dp721
g65
g0
(g66
g61
(lp722
g338
ag338
ag91
ag91
atp723
Rp724
sg94
(lp725
g502
asg75
(lp726
g0
(g98
g61
(lp727
tp728
Rp729
(dp730
g103
g104
(g105
tp731
Rp732
sg108
I00
sg109
I0
sbasg110
I28
sg111
(dp733
g113
I2
ssg114
(dp734
(I0
I0
tp735
S'GC_61'
p736
sstp737
Rp738
ag0
(g63
g2
(dp739
g65
g0
(g66
g61
(lp740
g338
ag338
ag91
atp741
Rp742
sg94
(lp743
g521
asg75
(lp744
g0
(g98
g61
(lp745
tp746
Rp747
(dp748
g103
g104
(g105
tp749
Rp750
sg108
I00
sg109
I0
sbasg110
I29
sg111
(dp751
g113
I1
ssg114
(dp752
(I0
I0
tp753
S'GC_69'
p754
sstp755
Rp756
ag0
(g63
g2
(dp757
g65
g0
(g66
g61
(lp758
g308
ag311
ag338
ag338
atp759
Rp760
sg94
(lp761
g540
asg75
(lp762
g0
(g98
g61
(lp763
tp764
Rp765
(dp766
g103
g104
(g105
tp767
Rp768
sg108
I00
sg109
I0
sbasg110
I30
sg111
(dp769
g113
I2
ssg114
(dp770
(I0
I0
tp771
S'GC_9'
p772
sstp773
Rp774
ag0
(g63
g2
(dp775
g65
g0
(g66
g61
(lp776
g338
ag338
ag91
ag91
ag226
atp777
Rp778
sg94
(lp779
g577
asg75
(lp780
g0
(g98
g61
(lp781
tp782
Rp783
(dp784
g103
g104
(g105
tp785
Rp786
sg108
I00
sg109
I0
sbasg110
I31
sg111
(dp787
g240
I1
sg113
I2
ssg114
(dp788
(I0
I0
tp789
S'GC_63'
p790
sstp791
Rp792
ag0
(g63
g2
(dp793
g65
g0
(g66
g61
(lp794
g338
ag338
ag91
ag226
atp795
Rp796
sg94
(lp797
g596
asg75
(lp798
g0
(g98
g61
(lp799
tp800
Rp801
(dp802
g103
g104
(g105
tp803
Rp804
sg108
I00
sg109
I0
sbasg110
I32
sg111
(dp805
g240
I1
sg113
I1
ssg114
(dp806
(I0
I0
tp807
S'GC_70'
p808
sstp809
Rp810
ag0
(g63
g2
(dp811
g65
g0
(g66
g61
(lp812
g308
ag311
ag338
ag338
ag226
atp813
Rp814
sg94
(lp815
g615
asg75
(lp816
g0
(g98
g61
(lp817
tp818
Rp819
(dp820
g103
g104
(g105
tp821
Rp822
sg108
I00
sg109
I0
sbasg110
I33
sg111
(dp823
g240
I1
sg113
I2
ssg114
(dp824
(I0
I0
tp825
S'GC_25'
p826
sstp827
Rp828
ag0
(g63
g2
(dp829
g65
g0
(g66
g61
(lp830
g0
(g68
g2
(dp831
g70
S'd'
p832
sg86
I00
sg13
S'd'
p833
sg74
I00
sg75
I3
sg76
g144
sg78
F-0.3333333333333333
sg79
g144
sg83
I0
sg81
S'd~'
p834
sg84
S'straight'
p835
sg72
I01
sg87
I2
sg88
g832
sg89
I1
stp836
Rp837
ag0
(g68
g2
(dp838
g70
g832
sg72
I01
sg13
g833
sg74
I00
sg75
I3
sg76
g144
sg78
F-0.3333333333333333
sg79
g144
sg81
g834
sg83
I0
sg84
g835
sg86
I01
sg87
I2
sg88
g832
sg89
I1
stp839
Rp840
ag256
atp841
Rp842
sg94
(lp843
S'FFV1'
p844
asg75
(lp845
g0
(g98
g61
(lp846
cmadgraph.core.color_algebra
T
p847
(I1
I0
tp848
Rp849
atp850
Rp851
(dp852
g103
g104
(g105
tp853
Rp854
sg108
I00
sg109
I0
sbasg110
I34
sg111
(dp855
g113
I1
ssg114
(dp856
(I0
I0
tp857
S'GC_1'
p858
sstp859
Rp860
ag0
(g63
g2
(dp861
g65
g0
(g66
g61
(lp862
g0
(g68
g2
(dp863
g70
S's'
p864
sg86
I00
sg13
S's'
p865
sg74
I00
sg75
I3
sg76
g144
sg78
F-0.3333333333333333
sg79
g144
sg83
I0
sg81
S's~'
p866
sg84
g835
sg72
I01
sg87
I2
sg88
g864
sg89
I3
stp867
Rp868
ag0
(g68
g2
(dp869
g70
g864
sg72
I01
sg13
g865
sg74
I00
sg75
I3
sg76
g144
sg78
F-0.3333333333333333
sg79
g144
sg81
g866
sg83
I0
sg84
g835
sg86
I01
sg87
I2
sg88
g864
sg89
I3
stp870
Rp871
ag256
atp872
Rp873
sg94
(lp874
g844
asg75
(lp875
g0
(g98
g61
(lp876
g847
(I1
I0
tp877
Rp878
atp879
Rp880
(dp881
g103
g104
(g105
tp882
Rp883
sg108
I00
sg109
I0
sbasg110
I35
sg111
g855
sg114
(dp884
(I0
I0
tp885
g858
sstp886
Rp887
ag0
(g63
g2
(dp888
g65
g0
(g66
g61
(lp889
g0
(g68
g2
(dp890
g70
S'b'
p891
sg86
I00
sg13
S'b'
p892
sg74
I00
sg75
I3
sg76
g144
sg78
F-0.3333333333333333
sg79
S'MB'
p893
sg83
I0
sg81
S'b~'
p894
sg84
g835
sg72
I01
sg87
I2
sg88
g891
sg89
I5
stp895
Rp896
ag0
(g68
g2
(dp897
g70
g891
sg72
I01
sg13
g892
sg74
I00
sg75
I3
sg76
g144
sg78
F-0.3333333333333333
sg79
g893
sg81
g894
sg83
I0
sg84
g835
sg86
I01
sg87
I2
sg88
g891
sg89
I5
stp898
Rp899
ag256
atp900
Rp901
sg94
(lp902
g844
asg75
(lp903
g0
(g98
g61
(lp904
g847
(I1
I0
tp905
Rp906
atp907
Rp908
(dp909
g103
g104
(g105
tp910
Rp911
sg108
I00
sg109
I0
sbasg110
I36
sg111
g855
sg114
(dp912
(I0
I0
tp913
g858
sstp914
Rp915
ag0
(g63
g2
(dp916
g65
g0
(g66
g61
(lp917
g0
(g68
g2
(dp918
g70
S'e-'
p919
sg86
I00
sg13
S'e-'
p920
sg74
I00
sg75
I1
sg76
g144
sg78
F-1.0
sg79
g144
sg83
I1
sg81
S'e+'
p921
sg84
g835
sg72
I01
sg87
I2
sg88
g919
sg89
I11
stp922
Rp923
ag0
(g68
g2
(dp924
g70
g919
sg72
I01
sg13
g920
sg74
I00
sg75
I1
sg76
g144
sg78
F-1.0
sg79
g144
sg81
g921
sg83
I1
sg84
g835
sg86
I01
sg87
I2
sg88
g919
sg89
I11
stp925
Rp926
ag256
atp927
Rp928
sg94
(lp929
g844
asg75
(lp930
g0
(g98
g61
(lp931
tp932
Rp933
(dp934
g103
g104
(g105
tp935
Rp936
sg108
I00
sg109
I0
sbasg110
I37
sg111
(dp937
g113
I1
ssg114
(dp938
(I0
I0
tp939
S'GC_3'
p940
sstp941
Rp942
ag0
(g63
g2
(dp943
g65
g0
(g66
g61
(lp944
g0
(g68
g2
(dp945
g70
S'm-'
p946
sg86
I00
sg13
S'm-'
p947
sg74
I00
sg75
I1
sg76
g144
sg78
F-1.0
sg79
g144
sg83
I1
sg81
S'm+'
p948
sg84
g835
sg72
I01
sg87
I2
sg88
g946
sg89
I13
stp949
Rp950
ag0
(g68
g2
(dp951
g70
g946
sg72
I01
sg13
g947
sg74
I00
sg75
I1
sg76
g144
sg78
F-1.0
sg79
g144
sg81
g948
sg83
I1
sg84
g835
sg86
I01
sg87
I2
sg88
g946
sg89
I13
stp952
Rp953
ag256
atp954
Rp955
sg94
(lp956
g844
asg75
(lp957
g0
(g98
g61
(lp958
tp959
Rp960
(dp961
g103
g104
(g105
tp962
Rp963
sg108
I00
sg109
I0
sbasg110
I38
sg111
g937
sg114
(dp964
(I0
I0
tp965
g940
sstp966
Rp967
ag0
(g63
g2
(dp968
g65
g0
(g66
g61
(lp969
g0
(g68
g2
(dp970
g70
S'tt-'
p971
sg86
I00
sg13
S'tt-'
p972
sg74
I00
sg75
I1
sg76
g144
sg78
F-1.0
sg79
S'MTA'
p973
sg83
I1
sg81
S'tt+'
p974
sg84
g835
sg72
I01
sg87
I2
sg88
g971
sg89
I15
stp975
Rp976
ag0
(g68
g2
(dp977
g70
g971
sg72
I01
sg13
g972
sg74
I00
sg75
I1
sg76
g144
sg78
F-1.0
sg79
g973
sg81
g974
sg83
I1
sg84
g835
sg86
I01
sg87
I2
sg88
g971
sg89
I15
stp978
Rp979
ag256
atp980
Rp981
sg94
(lp982
g844
asg75
(lp983
g0
(g98
g61
(lp984
tp985
Rp986
(dp987
g103
g104
(g105
tp988
Rp989
sg108
I00
sg109
I0
sbasg110
I39
sg111
g937
sg114
(dp990
(I0
I0
tp991
g940
sstp992
Rp993
ag0
(g63
g2
(dp994
g65
g0
(g66
g61
(lp995
g0
(g68
g2
(dp996
g70
S'u'
p997
sg86
I00
sg13
S'u'
p998
sg74
I00
sg75
I3
sg76
g144
sg78
F0.6666666666666666
sg79
g144
sg83
I0
sg81
S'u~'
p999
sg84
g835
sg72
I01
sg87
I2
sg88
g997
sg89
I2
stp1000
Rp1001
ag0
(g68
g2
(dp1002
g70
g997
sg72
I01
sg13
g998
sg74
I00
sg75
I3
sg76
g144
sg78
F0.6666666666666666
sg79
g144
sg81
g999
sg83
I0
sg84
g835
sg86
I01
sg87
I2
sg88
g997
sg89
I2
stp1003
Rp1004
ag256
atp1005
Rp1006
sg94
(lp1007
g844
asg75
(lp1008
g0
(g98
g61
(lp1009
g847
(I1
I0
tp1010
Rp1011
atp1012
Rp1013
(dp1014
g103
g104
(g105
tp1015
Rp1016
sg108
I00
sg109
I0
sbasg110
I40
sg111
(dp1017
g113
I1
ssg114
(dp1018
(I0
I0
tp1019
S'GC_2'
p1020
sstp1021
Rp1022
ag0
(g63
g2
(dp1023
g65
g0
(g66
g61
(lp1024
g0
(g68
g2
(dp1025
g70
S'c'
p1026
sg86
I00
sg13
S'c'
p1027
sg74
I00
sg75
I3
sg76
g144
sg78
F0.6666666666666666
sg79
S'MC'
p1028
sg83
I0
sg81
S'c~'
p1029
sg84
g835
sg72
I01
sg87
I2
sg88
g1026
sg89
I4
stp1030
Rp1031
ag0
(g68
g2
(dp1032
g70
g1026
sg72
I01
sg13
g1027
sg74
I00
sg75
I3
sg76
g144
sg78
F0.6666666666666666
sg79
g1028
sg81
g1029
sg83
I0
sg84
g835
sg86
I01
sg87
I2
sg88
g1026
sg89
I4
stp1033
Rp1034
ag256
atp1035
Rp1036
sg94
(lp1037
g844
asg75
(lp1038
g0
(g98
g61
(lp1039
g847
(I1
I0
tp1040
Rp1041
atp1042
Rp1043
(dp1044
g103
g104
(g105
tp1045
Rp1046
sg108
I00
sg109
I0
sbasg110
I41
sg111
g1017
sg114
(dp1047
(I0
I0
tp1048
g1020
sstp1049
Rp1050
ag0
(g63
g2
(dp1051
g65
g0
(g66
g61
(lp1052
g0
(g68
g2
(dp1053
g70
S't'
p1054
sg86
I00
sg13
S't'
p1055
sg74
I00
sg75
I3
sg76
S'WT'
p1056
sg78
F0.6666666666666666
sg79
S'MT'
p1057
sg83
I0
sg81
S't~'
p1058
sg84
g835
sg72
I01
sg87
I2
sg88
g1054
sg89
I6
stp1059
Rp1060
ag0
(g68
g2
(dp1061
g70
g1054
sg72
I01
sg13
g1055
sg74
I00
sg75
I3
sg76
g1056
sg78
F0.6666666666666666
sg79
g1057
sg81
g1058
sg83
I0
sg84
g835
sg86
I01
sg87
I2
sg88
g1054
sg89
I6
stp1062
Rp1063
ag256
atp1064
Rp1065
sg94
(lp1066
g844
asg75
(lp1067
g0
(g98
g61
(lp1068
g847
(I1
I0
tp1069
Rp1070
atp1071
Rp1072
(dp1073
g103
g104
(g105
tp1074
Rp1075
sg108
I00
sg109
I0
sbasg110
I42
sg111
g1017
sg114
(dp1076
(I0
I0
tp1077
g1020
sstp1078
Rp1079
ag0
(g63
g2
(dp1080
g65
g0
(g66
g61
(lp1081
g837
ag840
ag148
atp1082
Rp1083
sg94
(lp1084
g844
asg75
(lp1085
g0
(g98
g61
(lp1086
g847
(I2
I1
I0
tp1087
Rp1088
atp1089
Rp1090
(dp1091
g103
g104
(g105
tp1092
Rp1093
sg108
I00
sg109
I0
sbasg110
I43
sg111
(dp1094
g164
I1
ssg114
(dp1095
(I0
I0
tp1096
S'GC_5'
p1097
sstp1098
Rp1099
ag0
(g63
g2
(dp1100
g65
g0
(g66
g61
(lp1101
g868
ag871
ag148
atp1102
Rp1103
sg94
(lp1104
g844
asg75
(lp1105
g0
(g98
g61
(lp1106
g847
(I2
I1
I0
tp1107
Rp1108
atp1109
Rp1110
(dp1111
g103
g104
(g105
tp1112
Rp1113
sg108
I00
sg109
I0
sbasg110
I44
sg111
g1094
sg114
(dp1114
(I0
I0
tp1115
g1097
sstp1116
Rp1117
ag0
(g63
g2
(dp1118
g65
g0
(g66
g61
(lp1119
g896
ag899
ag148
atp1120
Rp1121
sg94
(lp1122
g844
asg75
(lp1123
g0
(g98
g61
(lp1124
g847
(I2
I1
I0
tp1125
Rp1126
atp1127
Rp1128
(dp1129
g103
g104
(g105
tp1130
Rp1131
sg108
I00
sg109
I0
sbasg110
I45
sg111
g1094
sg114
(dp1132
(I0
I0
tp1133
g1097
sstp1134
Rp1135
ag0
(g63
g2
(dp1136
g65
g0
(g66
g61
(lp1137
g837
ag840
ag226
atp1138
Rp1139
sg94
(lp1140
S'FFT1'
p1141
aS'FFT2'
p1142
asg75
(lp1143
g0
(g98
g61
(lp1144
g847
(I1
I0
tp1145
Rp1146
atp1147
Rp1148
(dp1149
g103
g104
(g105
tp1150
Rp1151
sg108
I00
sg109
I0
sbasg110
I46
sg111
(dp1152
g240
I1
ssg114
(dp1153
(I0
I1
tp1154
S'GC_81'
p1155
s(I0
I0
tp1156
S'GC_10'
p1157
sstp1158
Rp1159
ag0
(g63
g2
(dp1160
g65
g0
(g66
g61
(lp1161
g868
ag871
ag226
atp1162
Rp1163
sg94
(lp1164
g1141
ag1142
asg75
(lp1165
g0
(g98
g61
(lp1166
g847
(I1
I0
tp1167
Rp1168
atp1169
Rp1170
(dp1171
g103
g104
(g105
tp1172
Rp1173
sg108
I00
sg109
I0
sbasg110
I47
sg111
(dp1174
g240
I1
ssg114
(dp1175
(I0
I1
tp1176
S'GC_90'
p1177
s(I0
I0
tp1178
g1157
sstp1179
Rp1180
ag0
(g63
g2
(dp1181
g65
g0
(g66
g61
(lp1182
g896
ag899
ag226
atp1183
Rp1184
sg94
(lp1185
g1141
ag1142
asg75
(lp1186
g0
(g98
g61
(lp1187
g847
(I1
I0
tp1188
Rp1189
atp1190
Rp1191
(dp1192
g103
g104
(g105
tp1193
Rp1194
sg108
I00
sg109
I0
sbasg110
I48
sg111
(dp1195
g240
I1
ssg114
(dp1196
(I0
I1
tp1197
S'GC_75'
p1198
s(I0
I0
tp1199
g1157
sstp1200
Rp1201
ag0
(g63
g2
(dp1202
g65
g0
(g66
g61
(lp1203
g837
ag840
ag91
atp1204
Rp1205
sg94
(lp1206
S'FFS1'
p1207
asg75
(lp1208
g0
(g98
g61
(lp1209
g847
(I1
I0
tp1210
Rp1211
atp1212
Rp1213
(dp1214
g103
g104
(g105
tp1215
Rp1216
sg108
I00
sg109
I0
sbasg110
I49
sg111
(dp1217
g113
I1
ssg114
(dp1218
(I0
I0
tp1219
S'GC_79'
p1220
sstp1221
Rp1222
ag0
(g63
g2
(dp1223
g65
g0
(g66
g61
(lp1224
g868
ag871
ag91
atp1225
Rp1226
sg94
(lp1227
g1207
asg75
(lp1228
g0
(g98
g61
(lp1229
g847
(I1
I0
tp1230
Rp1231
atp1232
Rp1233
(dp1234
g103
g104
(g105
tp1235
Rp1236
sg108
I00
sg109
I0
sbasg110
I50
sg111
(dp1237
g113
I1
ssg114
(dp1238
(I0
I0
tp1239
S'GC_88'
p1240
sstp1241
Rp1242
ag0
(g63
g2
(dp1243
g65
g0
(g66
g61
(lp1244
g896
ag899
ag91
atp1245
Rp1246
sg94
(lp1247
g1207
asg75
(lp1248
g0
(g98
g61
(lp1249
g847
(I1
I0
tp1250
Rp1251
atp1252
Rp1253
(dp1254
g103
g104
(g105
tp1255
Rp1256
sg108
I00
sg109
I0
sbasg110
I51
sg111
(dp1257
g113
I1
ssg114
(dp1258
(I0
I0
tp1259
S'GC_73'
p1260
sstp1261
Rp1262
ag0
(g63
g2
(dp1263
g65
g0
(g66
g61
(lp1264
g837
ag840
ag338
atp1265
Rp1266
sg94
(lp1267
S'FFV2'
p1268
aS'FFV3'
p1269
asg75
(lp1270
g0
(g98
g61
(lp1271
g847
(I1
I0
tp1272
Rp1273
atp1274
Rp1275
(dp1276
g103
g104
(g105
tp1277
Rp1278
sg108
I00
sg109
I0
sbasg110
I52
sg111
(dp1279
g113
I1
ssg114
(dp1280
(I0
I1
tp1281
S'GC_52'
p1282
s(I0
I0
tp1283
S'GC_36'
p1284
sstp1285
Rp1286
ag0
(g63
g2
(dp1287
g65
g0
(g66
g61
(lp1288
g868
ag871
ag338
atp1289
Rp1290
sg94
(lp1291
g1268
ag1269
asg75
(lp1292
g0
(g98
g61
(lp1293
g847
(I1
I0
tp1294
Rp1295
atp1296
Rp1297
(dp1298
g103
g104
(g105
tp1299
Rp1300
sg108
I00
sg109
I0
sbasg110
I53
sg111
g1279
sg114
(dp1301
(I0
I1
tp1302
g1282
s(I0
I0
tp1303
g1284
sstp1304
Rp1305
ag0
(g63
g2
(dp1306
g65
g0
(g66
g61
(lp1307
g896
ag899
ag338
atp1308
Rp1309
sg94
(lp1310
g1268
ag1269
asg75
(lp1311
g0
(g98
g61
(lp1312
g847
(I1
I0
tp1313
Rp1314
atp1315
Rp1316
(dp1317
g103
g104
(g105
tp1318
Rp1319
sg108
I00
sg109
I0
sbasg110
I54
sg111
g1279
sg114
(dp1320
(I0
I1
tp1321
g1282
s(I0
I0
tp1322
g1284
sstp1323
Rp1324
ag0
(g63
g2
(dp1325
g65
g0
(g66
g61
(lp1326
g837
ag1004
ag308
atp1327
Rp1328
sg94
(lp1329
g1268
asg75
(lp1330
g0
(g98
g61
(lp1331
g847
(I1
I0
tp1332
Rp1333
atp1334
Rp1335
(dp1336
g103
g104
(g105
tp1337
Rp1338
sg108
I00
sg109
I0
sbasg110
I55
sg111
(dp1339
g113
I1
ssg114
(dp1340
(I0
I0
tp1341
S'GC_27'
p1342
sstp1343
Rp1344
ag0
(g63
g2
(dp1345
g65
g0
(g66
g61
(lp1346
g837
ag1034
ag308
atp1347
Rp1348
sg94
(lp1349
g1268
asg75
(lp1350
g0
(g98
g61
(lp1351
g847
(I1
I0
tp1352
Rp1353
atp1354
Rp1355
(dp1356
g103
g104
(g105
tp1357
Rp1358
sg108
I00
sg109
I0
sbasg110
I56
sg111
(dp1359
g113
I1
ssg114
(dp1360
(I0
I0
tp1361
S'GC_30'
p1362
sstp1363
Rp1364
ag0
(g63
g2
(dp1365
g65
g0
(g66
g61
(lp1366
g837
ag1063
ag308
atp1367
Rp1368
sg94
(lp1369
g1268
asg75
(lp1370
g0
(g98
g61
(lp1371
g847
(I1
I0
tp1372
Rp1373
atp1374
Rp1375
(dp1376
g103
g104
(g105
tp1377
Rp1378
sg108
I00
sg109
I0
sbasg110
I57
sg111
(dp1379
g113
I1
ssg114
(dp1380
(I0
I0
tp1381
S'GC_33'
p1382
sstp1383
Rp1384
ag0
(g63
g2
(dp1385
g65
g0
(g66
g61
(lp1386
g868
ag1004
ag308
atp1387
Rp1388
sg94
(lp1389
g1268
asg75
(lp1390
g0
(g98
g61
(lp1391
g847
(I1
I0
tp1392
Rp1393
atp1394
Rp1395
(dp1396
g103
g104
(g105
tp1397
Rp1398
sg108
I00
sg109
I0
sbasg110
I58
sg111
(dp1399
g113
I1
ssg114
(dp1400
(I0
I0
tp1401
S'GC_28'
p1402
sstp1403
Rp1404
ag0
(g63
g2
(dp1405
g65
g0
(g66
g61
(lp1406
g868
ag1034
ag308
atp1407
Rp1408
sg94
(lp1409
g1268
asg75
(lp1410
g0
(g98
g61
(lp1411
g847
(I1
I0
tp1412
Rp1413
atp1414
Rp1415
(dp1416
g103
g104
(g105
tp1417
Rp1418
sg108
I00
sg109
I0
sbasg110
I59
sg111
(dp1419
g113
I1
ssg114
(dp1420
(I0
I0
tp1421
S'GC_31'
p1422
sstp1423
Rp1424
ag0
(g63
g2
(dp1425
g65
g0
(g66
g61
(lp1426
g868
ag1063
ag308
atp1427
Rp1428
sg94
(lp1429
g1268
asg75
(lp1430
g0
(g98
g61
(lp1431
g847
(I1
I0
tp1432
Rp1433
atp1434
Rp1435
(dp1436
g103
g104
(g105
tp1437
Rp1438
sg108
I00
sg109
I0
sbasg110
I60
sg111
(dp1439
g113
I1
ssg114
(dp1440
(I0
I0
tp1441
S'GC_34'
p1442
sstp1443
Rp1444
ag0
(g63
g2
(dp1445
g65
g0
(g66
g61
(lp1446
g896
ag1004
ag308
atp1447
Rp1448
sg94
(lp1449
g1268
asg75
(lp1450
g0
(g98
g61
(lp1451
g847
(I1
I0
tp1452
Rp1453
atp1454
Rp1455
(dp1456
g103
g104
(g105
tp1457
Rp1458
sg108
I00
sg109
I0
sbasg110
I61
sg111
(dp1459
g113
I1
ssg114
(dp1460
(I0
I0
tp1461
S'GC_29'
p1462
sstp1463
Rp1464
ag0
(g63
g2
(dp1465
g65
g0
(g66
g61
(lp1466
g896
ag1034
ag308
atp1467
Rp1468
sg94
(lp1469
g1268
asg75
(lp1470
g0
(g98
g61
(lp1471
g847
(I1
I0
tp1472
Rp1473
atp1474
Rp1475
(dp1476
g103
g104
(g105
tp1477
Rp1478
sg108
I00
sg109
I0
sbasg110
I62
sg111
(dp1479
g113
I1
ssg114
(dp1480
(I0
I0
tp1481
S'GC_32'
p1482
sstp1483
Rp1484
ag0
(g63
g2
(dp1485
g65
g0
(g66
g61
(lp1486
g896
ag1063
ag308
atp1487
Rp1488
sg94
(lp1489
g1268
asg75
(lp1490
g0
(g98
g61
(lp1491
g847
(I1
I0
tp1492
Rp1493
atp1494
Rp1495
(dp1496
g103
g104
(g105
tp1497
Rp1498
sg108
I00
sg109
I0
sbasg110
I63
sg111
(dp1499
g113
I1
ssg114
(dp1500
(I0
I0
tp1501
S'GC_35'
p1502
sstp1503
Rp1504
ag0
(g63
g2
(dp1505
g65
g0
(g66
g61
(lp1506
g1001
ag840
ag311
atp1507
Rp1508
sg94
(lp1509
g1268
asg75
(lp1510
g0
(g98
g61
(lp1511
g847
(I1
I0
tp1512
Rp1513
atp1514
Rp1515
(dp1516
g103
g104
(g105
tp1517
Rp1518
sg108
I00
sg109
I0
sbasg110
I64
sg111
(dp1519
g113
I1
ssg114
(dp1520
(I0
I0
tp1521
S'GC_100'
p1522
sstp1523
Rp1524
ag0
(g63
g2
(dp1525
g65
g0
(g66
g61
(lp1526
g1031
ag840
ag311
atp1527
Rp1528
sg94
(lp1529
g1268
asg75
(lp1530
g0
(g98
g61
(lp1531
g847
(I1
I0
tp1532
Rp1533
atp1534
Rp1535
(dp1536
g103
g104
(g105
tp1537
Rp1538
sg108
I00
sg109
I0
sbasg110
I65
sg111
(dp1539
g113
I1
ssg114
(dp1540
(I0
I0
tp1541
S'GC_106'
p1542
sstp1543
Rp1544
ag0
(g63
g2
(dp1545
g65
g0
(g66
g61
(lp1546
g1060
ag840
ag311
atp1547
Rp1548
sg94
(lp1549
g1268
asg75
(lp1550
g0
(g98
g61
(lp1551
g847
(I1
I0
tp1552
Rp1553
atp1554
Rp1555
(dp1556
g103
g104
(g105
tp1557
Rp1558
sg108
I00
sg109
I0
sbasg110
I66
sg111
(dp1559
g113
I1
ssg114
(dp1560
(I0
I0
tp1561
S'GC_112'
p1562
sstp1563
Rp1564
ag0
(g63
g2
(dp1565
g65
g0
(g66
g61
(lp1566
g1001
ag871
ag311
atp1567
Rp1568
sg94
(lp1569
g1268
asg75
(lp1570
g0
(g98
g61
(lp1571
g847
(I1
I0
tp1572
Rp1573
atp1574
Rp1575
(dp1576
g103
g104
(g105
tp1577
Rp1578
sg108
I00
sg109
I0
sbasg110
I67
sg111
(dp1579
g113
I1
ssg114
(dp1580
(I0
I0
tp1581
S'GC_102'
p1582
sstp1583
Rp1584
ag0
(g63
g2
(dp1585
g65
g0
(g66
g61
(lp1586
g1031
ag871
ag311
atp1587
Rp1588
sg94
(lp1589
g1268
asg75
(lp1590
g0
(g98
g61
(lp1591
g847
(I1
I0
tp1592
Rp1593
atp1594
Rp1595
(dp1596
g103
g104
(g105
tp1597
Rp1598
sg108
I00
sg109
I0
sbasg110
I68
sg111
(dp1599
g113
I1
ssg114
(dp1600
(I0
I0
tp1601
S'GC_108'
p1602
sstp1603
Rp1604
ag0
(g63
g2
(dp1605
g65
g0
(g66
g61
(lp1606
g1060
ag871
ag311
atp1607
Rp1608
sg94
(lp1609
g1268
asg75
(lp1610
g0
(g98
g61
(lp1611
g847
(I1
I0
tp1612
Rp1613
atp1614
Rp1615
(dp1616
g103
g104
(g105
tp1617
Rp1618
sg108
I00
sg109
I0
sbasg110
I69
sg111
(dp1619
g113
I1
ssg114
(dp1620
(I0
I0
tp1621
S'GC_114'
p1622
sstp1623
Rp1624
ag0
(g63
g2
(dp1625
g65
g0
(g66
g61
(lp1626
g1001
ag899
ag311
atp1627
Rp1628
sg94
(lp1629
g1268
asg75
(lp1630
g0
(g98
g61
(lp1631
g847
(I1
I0
tp1632
Rp1633
atp1634
Rp1635
(dp1636
g103
g104
(g105
tp1637
Rp1638
sg108
I00
sg109
I0
sbasg110
I70
sg111
(dp1639
g113
I1
ssg114
(dp1640
(I0
I0
tp1641
S'GC_104'
p1642
sstp1643
Rp1644
ag0
(g63
g2
(dp1645
g65
g0
(g66
g61
(lp1646
g1031
ag899
ag311
atp1647
Rp1648
sg94
(lp1649
g1268
asg75
(lp1650
g0
(g98
g61
(lp1651
g847
(I1
I0
tp1652
Rp1653
atp1654
Rp1655
(dp1656
g103
g104
(g105
tp1657
Rp1658
sg108
I00
sg109
I0
sbasg110
I71
sg111
(dp1659
g113
I1
ssg114
(dp1660
(I0
I0
tp1661
S'GC_110'
p1662
sstp1663
Rp1664
ag0
(g63
g2
(dp1665
g65
g0
(g66
g61
(lp1666
g1060
ag899
ag311
atp1667
Rp1668
sg94
(lp1669
g1268
asg75
(lp1670
g0
(g98
g61
(lp1671
g847
(I1
I0
tp1672
Rp1673
atp1674
Rp1675
(dp1676
g103
g104
(g105
tp1677
Rp1678
sg108
I00
sg109
I0
sbasg110
I72
sg111
(dp1679
g113
I1
ssg114
(dp1680
(I0
I0
tp1681
S'GC_116'
p1682
sstp1683
Rp1684
ag0
(g63
g2
(dp1685
g65
g0
(g66
g61
(lp1686
g1001
ag1004
ag148
atp1687
Rp1688
sg94
(lp1689
g844
asg75
(lp1690
g0
(g98
g61
(lp1691
g847
(I2
I1
I0
tp1692
Rp1693
atp1694
Rp1695
(dp1696
g103
g104
(g105
tp1697
Rp1698
sg108
I00
sg109
I0
sbasg110
I73
sg111
g1094
sg114
(dp1699
(I0
I0
tp1700
g1097
sstp1701
Rp1702
ag0
(g63
g2
(dp1703
g65
g0
(g66
g61
(lp1704
g1031
ag1034
ag148
atp1705
Rp1706
sg94
(lp1707
g844
asg75
(lp1708
g0
(g98
g61
(lp1709
g847
(I2
I1
I0
tp1710
Rp1711
atp1712
Rp1713
(dp1714
g103
g104
(g105
tp1715
Rp1716
sg108
I00
sg109
I0
sbasg110
I74
sg111
g1094
sg114
(dp1717
(I0
I0
tp1718
g1097
sstp1719
Rp1720
ag0
(g63
g2
(dp1721
g65
g0
(g66
g61
(lp1722
g1060
ag1063
ag148
atp1723
Rp1724
sg94
(lp1725
g844
asg75
(lp1726
g0
(g98
g61
(lp1727
g847
(I2
I1
I0
tp1728
Rp1729
atp1730
Rp1731
(dp1732
g103
g104
(g105
tp1733
Rp1734
sg108
I00
sg109
I0
sbasg110
I75
sg111
g1094
sg114
(dp1735
(I0
I0
tp1736
g1097
sstp1737
Rp1738
ag0
(g63
g2
(dp1739
g65
g0
(g66
g61
(lp1740
g923
ag926
ag226
atp1741
Rp1742
sg94
(lp1743
g1141
ag1142
asg75
(lp1744
g0
(g98
g61
(lp1745
tp1746
Rp1747
(dp1748
g103
g104
(g105
tp1749
Rp1750
sg108
I00
sg109
I0
sbasg110
I76
sg111
(dp1751
g240
I1
ssg114
(dp1752
(I0
I1
tp1753
S'GC_84'
p1754
s(I0
I0
tp1755
g1157
sstp1756
Rp1757
ag0
(g63
g2
(dp1758
g65
g0
(g66
g61
(lp1759
g950
ag953
ag226
atp1760
Rp1761
sg94
(lp1762
g1141
ag1142
asg75
(lp1763
g0
(g98
g61
(lp1764
tp1765
Rp1766
(dp1767
g103
g104
(g105
tp1768
Rp1769
sg108
I00
sg109
I0
sbasg110
I77
sg111
(dp1770
g240
I1
ssg114
(dp1771
(I0
I1
tp1772
S'GC_87'
p1773
s(I0
I0
tp1774
g1157
sstp1775
Rp1776
ag0
(g63
g2
(dp1777
g65
g0
(g66
g61
(lp1778
g976
ag979
ag226
atp1779
Rp1780
sg94
(lp1781
g1141
ag1142
asg75
(lp1782
g0
(g98
g61
(lp1783
tp1784
Rp1785
(dp1786
g103
g104
(g105
tp1787
Rp1788
sg108
I00
sg109
I0
sbasg110
I78
sg111
(dp1789
g240
I1
ssg114
(dp1790
(I0
I1
tp1791
S'GC_96'
p1792
s(I0
I0
tp1793
g1157
sstp1794
Rp1795
ag0
(g63
g2
(dp1796
g65
g0
(g66
g61
(lp1797
g1001
ag1004
ag226
atp1798
Rp1799
sg94
(lp1800
g1141
ag1142
asg75
(lp1801
g0
(g98
g61
(lp1802
g847
(I1
I0
tp1803
Rp1804
atp1805
Rp1806
(dp1807
g103
g104
(g105
tp1808
Rp1809
sg108
I00
sg109
I0
sbasg110
I79
sg111
(dp1810
g240
I1
ssg114
(dp1811
(I0
I1
tp1812
S'GC_99'
p1813
s(I0
I0
tp1814
g1157
sstp1815
Rp1816
ag0
(g63
g2
(dp1817
g65
g0
(g66
g61
(lp1818
g1031
ag1034
ag226
atp1819
Rp1820
sg94
(lp1821
g1141
ag1142
asg75
(lp1822
g0
(g98
g61
(lp1823
g847
(I1
I0
tp1824
Rp1825
atp1826
Rp1827
(dp1828
g103
g104
(g105
tp1829
Rp1830
sg108
I00
sg109
I0
sbasg110
I80
sg111
(dp1831
g240
I1
ssg114
(dp1832
(I0
I1
tp1833
S'GC_78'
p1834
s(I0
I0
tp1835
g1157
sstp1836
Rp1837
ag0
(g63
g2
(dp1838
g65
g0
(g66
g61
(lp1839
g1060
ag1063
ag226
atp1840
Rp1841
sg94
(lp1842
g1141
ag1142
asg75
(lp1843
g0
(g98
g61
(lp1844
g847
(I1
I0
tp1845
Rp1846
atp1847
Rp1848
(dp1849
g103
g104
(g105
tp1850
Rp1851
sg108
I00
sg109
I0
sbasg110
I81
sg111
(dp1852
g240
I1
ssg114
(dp1853
(I0
I1
tp1854
S'GC_93'
p1855
s(I0
I0
tp1856
g1157
sstp1857
Rp1858
ag0
(g63
g2
(dp1859
g65
g0
(g66
g61
(lp1860
g0
(g68
g2
(dp1861
g70
S've'
p1862
sg86
I00
sg13
S've'
p1863
sg74
I00
sg75
I1
sg76
g144
sg78
F0.0
sg79
g144
sg83
I1
sg81
S've~'
p1864
sg84
g835
sg72
I01
sg87
I2
sg88
g1862
sg89
I12
stp1865
Rp1866
ag0
(g68
g2
(dp1867
g70
g1862
sg72
I01
sg13
g1863
sg74
I00
sg75
I1
sg76
g144
sg78
F0.0
sg79
g144
sg81
g1864
sg83
I1
sg84
g835
sg86
I01
sg87
I2
sg88
g1862
sg89
I12
stp1868
Rp1869
ag226
atp1870
Rp1871
sg94
(lp1872
g1141
asg75
(lp1873
g0
(g98
g61
(lp1874
tp1875
Rp1876
(dp1877
g103
g104
(g105
tp1878
Rp1879
sg108
I00
sg109
I0
sbasg110
I82
sg111
(dp1880
g240
I1
ssg114
(dp1881
(I0
I0
tp1882
g1157
sstp1883
Rp1884
ag0
(g63
g2
(dp1885
g65
g0
(g66
g61
(lp1886
g0
(g68
g2
(dp1887
g70
S'vm'
p1888
sg86
I00
sg13
S'vm'
p1889
sg74
I00
sg75
I1
sg76
g144
sg78
F0.0
sg79
g144
sg83
I1
sg81
S'vm~'
p1890
sg84
g835
sg72
I01
sg87
I2
sg88
g1888
sg89
I14
stp1891
Rp1892
ag0
(g68
g2
(dp1893
g70
g1888
sg72
I01
sg13
g1889
sg74
I00
sg75
I1
sg76
g144
sg78
F0.0
sg79
g144
sg81
g1890
sg83
I1
sg84
g835
sg86
I01
sg87
I2
sg88
g1888
sg89
I14
stp1894
Rp1895
ag226
atp1896
Rp1897
sg94
(lp1898
g1141
asg75
(lp1899
g0
(g98
g61
(lp1900
tp1901
Rp1902
(dp1903
g103
g104
(g105
tp1904
Rp1905
sg108
I00
sg109
I0
sbasg110
I83
sg111
g1880
sg114
(dp1906
(I0
I0
tp1907
g1157
sstp1908
Rp1909
ag0
(g63
g2
(dp1910
g65
g0
(g66
g61
(lp1911
g0
(g68
g2
(dp1912
g70
S'vt'
p1913
sg86
I00
sg13
S'vt'
p1914
sg74
I00
sg75
I1
sg76
g144
sg78
F0.0
sg79
g144
sg83
I1
sg81
S'vt~'
p1915
sg84
g835
sg72
I01
sg87
I2
sg88
g1913
sg89
I16
stp1916
Rp1917
ag0
(g68
g2
(dp1918
g70
g1913
sg72
I01
sg13
g1914
sg74
I00
sg75
I1
sg76
g144
sg78
F0.0
sg79
g144
sg81
g1915
sg83
I1
sg84
g835
sg86
I01
sg87
I2
sg88
g1913
sg89
I16
stp1919
Rp1920
ag226
atp1921
Rp1922
sg94
(lp1923
g1141
asg75
(lp1924
g0
(g98
g61
(lp1925
tp1926
Rp1927
(dp1928
g103
g104
(g105
tp1929
Rp1930
sg108
I00
sg109
I0
sbasg110
I84
sg111
g1880
sg114
(dp1931
(I0
I0
tp1932
g1157
sstp1933
Rp1934
ag0
(g63
g2
(dp1935
g65
g0
(g66
g61
(lp1936
g923
ag926
ag91
atp1937
Rp1938
sg94
(lp1939
g1207
asg75
(lp1940
g0
(g98
g61
(lp1941
tp1942
Rp1943
(dp1944
g103
g104
(g105
tp1945
Rp1946
sg108
I00
sg109
I0
sbasg110
I85
sg111
(dp1947
g113
I1
ssg114
(dp1948
(I0
I0
tp1949
S'GC_82'
p1950
sstp1951
Rp1952
ag0
(g63
g2
(dp1953
g65
g0
(g66
g61
(lp1954
g950
ag953
ag91
atp1955
Rp1956
sg94
(lp1957
g1207
asg75
(lp1958
g0
(g98
g61
(lp1959
tp1960
Rp1961
(dp1962
g103
g104
(g105
tp1963
Rp1964
sg108
I00
sg109
I0
sbasg110
I86
sg111
(dp1965
g113
I1
ssg114
(dp1966
(I0
I0
tp1967
S'GC_85'
p1968
sstp1969
Rp1970
ag0
(g63
g2
(dp1971
g65
g0
(g66
g61
(lp1972
g976
ag979
ag91
atp1973
Rp1974
sg94
(lp1975
g1207
asg75
(lp1976
g0
(g98
g61
(lp1977
tp1978
Rp1979
(dp1980
g103
g104
(g105
tp1981
Rp1982
sg108
I00
sg109
I0
sbasg110
I87
sg111
(dp1983
g113
I1
ssg114
(dp1984
(I0
I0
tp1985
S'GC_94'
p1986
sstp1987
Rp1988
ag0
(g63
g2
(dp1989
g65
g0
(g66
g61
(lp1990
g1001
ag1004
ag91
atp1991
Rp1992
sg94
(lp1993
g1207
asg75
(lp1994
g0
(g98
g61
(lp1995
g847
(I1
I0
tp1996
Rp1997
atp1998
Rp1999
(dp2000
g103
g104
(g105
tp2001
Rp2002
sg108
I00
sg109
I0
sbasg110
I88
sg111
(dp2003
g113
I1
ssg114
(dp2004
(I0
I0
tp2005
S'GC_97'
p2006
sstp2007
Rp2008
ag0
(g63
g2
(dp2009
g65
g0
(g66
g61
(lp2010
g1031
ag1034
ag91
atp2011
Rp2012
sg94
(lp2013
g1207
asg75
(lp2014
g0
(g98
g61
(lp2015
g847
(I1
I0
tp2016
Rp2017
atp2018
Rp2019
(dp2020
g103
g104
(g105
tp2021
Rp2022
sg108
I00
sg109
I0
sbasg110
I89
sg111
(dp2023
g113
I1
ssg114
(dp2024
(I0
I0
tp2025
S'GC_76'
p2026
sstp2027
Rp2028
ag0
(g63
g2
(dp2029
g65
g0
(g66
g61
(lp2030
g1060
ag1063
ag91
atp2031
Rp2032
sg94
(lp2033
g1207
asg75
(lp2034
g0
(g98
g61
(lp2035
g847
(I1
I0
tp2036
Rp2037
atp2038
Rp2039
(dp2040
g103
g104
(g105
tp2041
Rp2042
sg108
I00
sg109
I0
sbasg110
I90
sg111
(dp2043
g113
I1
ssg114
(dp2044
(I0
I0
tp2045
S'GC_91'
p2046
sstp2047
Rp2048
ag0
(g63
g2
(dp2049
g65
g0
(g66
g61
(lp2050
g923
ag926
ag338
atp2051
Rp2052
sg94
(lp2053
g1268
aS'FFV4'
p2054
asg75
(lp2055
g0
(g98
g61
(lp2056
tp2057
Rp2058
(dp2059
g103
g104
(g105
tp2060
Rp2061
sg108
I00
sg109
I0
sbasg110
I91
sg111
(dp2062
g113
I1
ssg114
(dp2063
(I0
I1
tp2064
S'GC_53'
p2065
s(I0
I0
tp2066
g1284
sstp2067
Rp2068
ag0
(g63
g2
(dp2069
g65
g0
(g66
g61
(lp2070
g950
ag953
ag338
atp2071
Rp2072
sg94
(lp2073
g1268
ag2054
asg75
(lp2074
g0
(g98
g61
(lp2075
tp2076
Rp2077
(dp2078
g103
g104
(g105
tp2079
Rp2080
sg108
I00
sg109
I0
sbasg110
I92
sg111
g2062
sg114
(dp2081
(I0
I1
tp2082
g2065
s(I0
I0
tp2083
g1284
sstp2084
Rp2085
ag0
(g63
g2
(dp2086
g65
g0
(g66
g61
(lp2087
g976
ag979
ag338
atp2088
Rp2089
sg94
(lp2090
g1268
ag2054
asg75
(lp2091
g0
(g98
g61
(lp2092
tp2093
Rp2094
(dp2095
g103
g104
(g105
tp2096
Rp2097
sg108
I00
sg109
I0
sbasg110
I93
sg111
g2062
sg114
(dp2098
(I0
I1
tp2099
g2065
s(I0
I0
tp2100
g1284
sstp2101
Rp2102
ag0
(g63
g2
(dp2103
g65
g0
(g66
g61
(lp2104
g923
ag1869
ag308
atp2105
Rp2106
sg94
(lp2107
g1268
asg75
(lp2108
g0
(g98
g61
(lp2109
tp2110
Rp2111
(dp2112
g103
g104
(g105
tp2113
Rp2114
sg108
I00
sg109
I0
sbasg110
I94
sg111
(dp2115
g113
I1
ssg114
(dp2116
(I0
I0
tp2117
S'GC_26'
p2118
sstp2119
Rp2120
ag0
(g63
g2
(dp2121
g65
g0
(g66
g61
(lp2122
g950
ag1895
ag308
atp2123
Rp2124
sg94
(lp2125
g1268
asg75
(lp2126
g0
(g98
g61
(lp2127
tp2128
Rp2129
(dp2130
g103
g104
(g105
tp2131
Rp2132
sg108
I00
sg109
I0
sbasg110
I95
sg111
g2115
sg114
(dp2133
(I0
I0
tp2134
g2118
sstp2135
Rp2136
ag0
(g63
g2
(dp2137
g65
g0
(g66
g61
(lp2138
g976
ag1920
ag308
atp2139
Rp2140
sg94
(lp2141
g1268
asg75
(lp2142
g0
(g98
g61
(lp2143
tp2144
Rp2145
(dp2146
g103
g104
(g105
tp2147
Rp2148
sg108
I00
sg109
I0
sbasg110
I96
sg111
g2115
sg114
(dp2149
(I0
I0
tp2150
g2118
sstp2151
Rp2152
ag0
(g63
g2
(dp2153
g65
g0
(g66
g61
(lp2154
g1866
ag926
ag311
atp2155
Rp2156
sg94
(lp2157
g1268
asg75
(lp2158
g0
(g98
g61
(lp2159
tp2160
Rp2161
(dp2162
g103
g104
(g105
tp2163
Rp2164
sg108
I00
sg109
I0
sbasg110
I97
sg111
g2115
sg114
(dp2165
(I0
I0
tp2166
g2118
sstp2167
Rp2168
ag0
(g63
g2
(dp2169
g65
g0
(g66
g61
(lp2170
g1892
ag953
ag311
atp2171
Rp2172
sg94
(lp2173
g1268
asg75
(lp2174
g0
(g98
g61
(lp2175
tp2176
Rp2177
(dp2178
g103
g104
(g105
tp2179
Rp2180
sg108
I00
sg109
I0
sbasg110
I98
sg111
g2115
sg114
(dp2181
(I0
I0
tp2182
g2118
sstp2183
Rp2184
ag0
(g63
g2
(dp2185
g65
g0
(g66
g61
(lp2186
g1917
ag979
ag311
atp2187
Rp2188
sg94
(lp2189
g1268
asg75
(lp2190
g0
(g98
g61
(lp2191
tp2192
Rp2193
(dp2194
g103
g104
(g105
tp2195
Rp2196
sg108
I00
sg109
I0
sbasg110
I99
sg111
g2115
sg114
(dp2197
(I0
I0
tp2198
g2118
sstp2199
Rp2200
ag0
(g63
g2
(dp2201
g65
g0
(g66
g61
(lp2202
g1001
ag1004
ag338
atp2203
Rp2204
sg94
(lp2205
g1268
aS'FFV5'
p2206
asg75
(lp2207
g0
(g98
g61
(lp2208
g847
(I1
I0
tp2209
Rp2210
atp2211
Rp2212
(dp2213
g103
g104
(g105
tp2214
Rp2215
sg108
I00
sg109
I0
sbasg110
I100
sg111
g1279
sg114
(dp2216
(I0
I1
tp2217
g1282
s(I0
I0
tp2218
S'GC_37'
p2219
sstp2220
Rp2221
ag0
(g63
g2
(dp2222
g65
g0
(g66
g61
(lp2223
g1031
ag1034
ag338
atp2224
Rp2225
sg94
(lp2226
g1268
ag2206
asg75
(lp2227
g0
(g98
g61
(lp2228
g847
(I1
I0
tp2229
Rp2230
atp2231
Rp2232
(dp2233
g103
g104
(g105
tp2234
Rp2235
sg108
I00
sg109
I0
sbasg110
I101
sg111
g1279
sg114
(dp2236
(I0
I1
tp2237
g1282
s(I0
I0
tp2238
g2219
sstp2239
Rp2240
ag0
(g63
g2
(dp2241
g65
g0
(g66
g61
(lp2242
g1060
ag1063
ag338
atp2243
Rp2244
sg94
(lp2245
g1268
ag2206
asg75
(lp2246
g0
(g98
g61
(lp2247
g847
(I1
I0
tp2248
Rp2249
atp2250
Rp2251
(dp2252
g103
g104
(g105
tp2253
Rp2254
sg108
I00
sg109
I0
sbasg110
I102
sg111
g1279
sg114
(dp2255
(I0
I1
tp2256
g1282
s(I0
I0
tp2257
g2219
sstp2258
Rp2259
ag0
(g63
g2
(dp2260
g65
g0
(g66
g61
(lp2261
g1866
ag1869
ag338
atp2262
Rp2263
sg94
(lp2264
g1268
asg75
(lp2265
g0
(g98
g61
(lp2266
tp2267
Rp2268
(dp2269
g103
g104
(g105
tp2270
Rp2271
sg108
I00
sg109
I0
sbasg110
I103
sg111
(dp2272
g113
I1
ssg114
(dp2273
(I0
I0
tp2274
S'GC_59'
p2275
sstp2276
Rp2277
ag0
(g63
g2
(dp2278
g65
g0
(g66
g61
(lp2279
g1892
ag1895
ag338
atp2280
Rp2281
sg94
(lp2282
g1268
asg75
(lp2283
g0
(g98
g61
(lp2284
tp2285
Rp2286
(dp2287
g103
g104
(g105
tp2288
Rp2289
sg108
I00
sg109
I0
sbasg110
I104
sg111
g2272
sg114
(dp2290
(I0
I0
tp2291
g2275
sstp2292
Rp2293
ag0
(g63
g2
(dp2294
g65
g0
(g66
g61
(lp2295
g1917
ag1920
ag338
atp2296
Rp2297
sg94
(lp2298
g1268
asg75
(lp2299
g0
(g98
g61
(lp2300
tp2301
Rp2302
(dp2303
g103
g104
(g105
tp2304
Rp2305
sg108
I00
sg109
I0
sbasg110
I105
sg111
g2272
sg114
(dp2306
(I0
I0
tp2307
g2275
sstp2308
Rp2309
ag0
(g63
g2
(dp2310
g65
g0
(g66
g61
(lp2311
g837
ag840
ag256
ag226
atp2312
Rp2313
sg94
(lp2314
S'FFVT4'
p2315
asg75
(lp2316
g0
(g98
g61
(lp2317
g847
(I1
I0
tp2318
Rp2319
atp2320
Rp2321
(dp2322
g103
g104
(g105
tp2323
Rp2324
sg108
I00
sg109
I0
sbasg110
I106
sg111
(dp2325
g240
I1
sg113
I1
ssg114
(dp2326
(I0
I0
tp2327
S'GC_13'
p2328
sstp2329
Rp2330
ag0
(g63
g2
(dp2331
g65
g0
(g66
g61
(lp2332
g868
ag871
ag256
ag226
atp2333
Rp2334
sg94
(lp2335
g2315
asg75
(lp2336
g0
(g98
g61
(lp2337
g847
(I1
I0
tp2338
Rp2339
atp2340
Rp2341
(dp2342
g103
g104
(g105
tp2343
Rp2344
sg108
I00
sg109
I0
sbasg110
I107
sg111
g2325
sg114
(dp2345
(I0
I0
tp2346
g2328
sstp2347
Rp2348
ag0
(g63
g2
(dp2349
g65
g0
(g66
g61
(lp2350
g896
ag899
ag256
ag226
atp2351
Rp2352
sg94
(lp2353
g2315
asg75
(lp2354
g0
(g98
g61
(lp2355
g847
(I1
I0
tp2356
Rp2357
atp2358
Rp2359
(dp2360
g103
g104
(g105
tp2361
Rp2362
sg108
I00
sg109
I0
sbasg110
I108
sg111
g2325
sg114
(dp2363
(I0
I0
tp2364
g2328
sstp2365
Rp2366
ag0
(g63
g2
(dp2367
g65
g0
(g66
g61
(lp2368
g923
ag926
ag256
ag226
atp2369
Rp2370
sg94
(lp2371
g2315
asg75
(lp2372
g0
(g98
g61
(lp2373
tp2374
Rp2375
(dp2376
g103
g104
(g105
tp2377
Rp2378
sg108
I00
sg109
I0
sbasg110
I109
sg111
g491
sg114
(dp2379
(I0
I0
tp2380
g494
sstp2381
Rp2382
ag0
(g63
g2
(dp2383
g65
g0
(g66
g61
(lp2384
g950
ag953
ag256
ag226
atp2385
Rp2386
sg94
(lp2387
g2315
asg75
(lp2388
g0
(g98
g61
(lp2389
tp2390
Rp2391
(dp2392
g103
g104
(g105
tp2393
Rp2394
sg108
I00
sg109
I0
sbasg110
I110
sg111
g491
sg114
(dp2395
(I0
I0
tp2396
g494
sstp2397
Rp2398
ag0
(g63
g2
(dp2399
g65
g0
(g66
g61
(lp2400
g976
ag979
ag256
ag226
atp2401
Rp2402
sg94
(lp2403
g2315
asg75
(lp2404
g0
(g98
g61
(lp2405
tp2406
Rp2407
(dp2408
g103
g104
(g105
tp2409
Rp2410
sg108
I00
sg109
I0
sbasg110
I111
sg111
g491
sg114
(dp2411
(I0
I0
tp2412
g494
sstp2413
Rp2414
ag0
(g63
g2
(dp2415
g65
g0
(g66
g61
(lp2416
g1001
ag1004
ag256
ag226
atp2417
Rp2418
sg94
(lp2419
g2315
asg75
(lp2420
g0
(g98
g61
(lp2421
g847
(I1
I0
tp2422
Rp2423
atp2424
Rp2425
(dp2426
g103
g104
(g105
tp2427
Rp2428
sg108
I00
sg109
I0
sbasg110
I112
sg111
(dp2429
g240
I1
sg113
I1
ssg114
(dp2430
(I0
I0
tp2431
S'GC_14'
p2432
sstp2433
Rp2434
ag0
(g63
g2
(dp2435
g65
g0
(g66
g61
(lp2436
g1031
ag1034
ag256
ag226
atp2437
Rp2438
sg94
(lp2439
g2315
asg75
(lp2440
g0
(g98
g61
(lp2441
g847
(I1
I0
tp2442
Rp2443
atp2444
Rp2445
(dp2446
g103
g104
(g105
tp2447
Rp2448
sg108
I00
sg109
I0
sbasg110
I113
sg111
g2429
sg114
(dp2449
(I0
I0
tp2450
g2432
sstp2451
Rp2452
ag0
(g63
g2
(dp2453
g65
g0
(g66
g61
(lp2454
g1060
ag1063
ag256
ag226
atp2455
Rp2456
sg94
(lp2457
g2315
asg75
(lp2458
g0
(g98
g61
(lp2459
g847
(I1
I0
tp2460
Rp2461
atp2462
Rp2463
(dp2464
g103
g104
(g105
tp2465
Rp2466
sg108
I00
sg109
I0
sbasg110
I114
sg111
g2429
sg114
(dp2467
(I0
I0
tp2468
g2432
sstp2469
Rp2470
ag0
(g63
g2
(dp2471
g65
g0
(g66
g61
(lp2472
g837
ag840
ag148
ag226
atp2473
Rp2474
sg94
(lp2475
S'FFVT1'
p2476
asg75
(lp2477
g0
(g98
g61
(lp2478
g847
(I2
I1
I0
tp2479
Rp2480
atp2481
Rp2482
(dp2483
g103
g104
(g105
tp2484
Rp2485
sg108
I00
sg109
I0
sbasg110
I115
sg111
(dp2486
g240
I1
sg164
I1
ssg114
(dp2487
(I0
I0
tp2488
S'GC_17'
p2489
sstp2490
Rp2491
ag0
(g63
g2
(dp2492
g65
g0
(g66
g61
(lp2493
g868
ag871
ag148
ag226
atp2494
Rp2495
sg94
(lp2496
g2476
asg75
(lp2497
g0
(g98
g61
(lp2498
g847
(I2
I1
I0
tp2499
Rp2500
atp2501
Rp2502
(dp2503
g103
g104
(g105
tp2504
Rp2505
sg108
I00
sg109
I0
sbasg110
I116
sg111
g2486
sg114
(dp2506
(I0
I0
tp2507
g2489
sstp2508
Rp2509
ag0
(g63
g2
(dp2510
g65
g0
(g66
g61
(lp2511
g896
ag899
ag148
ag226
atp2512
Rp2513
sg94
(lp2514
g2476
asg75
(lp2515
g0
(g98
g61
(lp2516
g847
(I2
I1
I0
tp2517
Rp2518
atp2519
Rp2520
(dp2521
g103
g104
(g105
tp2522
Rp2523
sg108
I00
sg109
I0
sbasg110
I117
sg111
g2486
sg114
(dp2524
(I0
I0
tp2525
g2489
sstp2526
Rp2527
ag0
(g63
g2
(dp2528
g65
g0
(g66
g61
(lp2529
g837
ag840
ag91
ag226
atp2530
Rp2531
sg94
(lp2532
S'FFST1'
p2533
asg75
(lp2534
g0
(g98
g61
(lp2535
g847
(I1
I0
tp2536
Rp2537
atp2538
Rp2539
(dp2540
g103
g104
(g105
tp2541
Rp2542
sg108
I00
sg109
I0
sbasg110
I118
sg111
(dp2543
g240
I1
sg113
I1
ssg114
(dp2544
(I0
I0
tp2545
S'GC_80'
p2546
sstp2547
Rp2548
ag0
(g63
g2
(dp2549
g65
g0
(g66
g61
(lp2550
g868
ag871
ag91
ag226
atp2551
Rp2552
sg94
(lp2553
g2533
asg75
(lp2554
g0
(g98
g61
(lp2555
g847
(I1
I0
tp2556
Rp2557
atp2558
Rp2559
(dp2560
g103
g104
(g105
tp2561
Rp2562
sg108
I00
sg109
I0
sbasg110
I119
sg111
(dp2563
g240
I1
sg113
I1
ssg114
(dp2564
(I0
I0
tp2565
S'GC_89'
p2566
sstp2567
Rp2568
ag0
(g63
g2
(dp2569
g65
g0
(g66
g61
(lp2570
g896
ag899
ag91
ag226
atp2571
Rp2572
sg94
(lp2573
g2533
asg75
(lp2574
g0
(g98
g61
(lp2575
g847
(I1
I0
tp2576
Rp2577
atp2578
Rp2579
(dp2580
g103
g104
(g105
tp2581
Rp2582
sg108
I00
sg109
I0
sbasg110
I120
sg111
(dp2583
g240
I1
sg113
I1
ssg114
(dp2584
(I0
I0
tp2585
S'GC_74'
p2586
sstp2587
Rp2588
ag0
(g63
g2
(dp2589
g65
g0
(g66
g61
(lp2590
g837
ag840
ag338
ag226
atp2591
Rp2592
sg94
(lp2593
S'FFVT2'
p2594
aS'FFVT3'
p2595
asg75
(lp2596
g0
(g98
g61
(lp2597
g847
(I1
I0
tp2598
Rp2599
atp2600
Rp2601
(dp2602
g103
g104
(g105
tp2603
Rp2604
sg108
I00
sg109
I0
sbasg110
I121
sg111
(dp2605
g240
I1
sg113
I1
ssg114
(dp2606
(I0
I1
tp2607
S'GC_56'
p2608
s(I0
I0
tp2609
S'GC_48'
p2610
sstp2611
Rp2612
ag0
(g63
g2
(dp2613
g65
g0
(g66
g61
(lp2614
g868
ag871
ag338
ag226
atp2615
Rp2616
sg94
(lp2617
g2594
ag2595
asg75
(lp2618
g0
(g98
g61
(lp2619
g847
(I1
I0
tp2620
Rp2621
atp2622
Rp2623
(dp2624
g103
g104
(g105
tp2625
Rp2626
sg108
I00
sg109
I0
sbasg110
I122
sg111
g2605
sg114
(dp2627
(I0
I1
tp2628
g2608
s(I0
I0
tp2629
g2610
sstp2630
Rp2631
ag0
(g63
g2
(dp2632
g65
g0
(g66
g61
(lp2633
g896
ag899
ag338
ag226
atp2634
Rp2635
sg94
(lp2636
g2594
ag2595
asg75
(lp2637
g0
(g98
g61
(lp2638
g847
(I1
I0
tp2639
Rp2640
atp2641
Rp2642
(dp2643
g103
g104
(g105
tp2644
Rp2645
sg108
I00
sg109
I0
sbasg110
I123
sg111
g2605
sg114
(dp2646
(I0
I1
tp2647
g2608
s(I0
I0
tp2648
g2610
sstp2649
Rp2650
ag0
(g63
g2
(dp2651
g65
g0
(g66
g61
(lp2652
g837
ag1004
ag308
ag226
atp2653
Rp2654
sg94
(lp2655
g2594
asg75
(lp2656
g0
(g98
g61
(lp2657
g847
(I1
I0
tp2658
Rp2659
atp2660
Rp2661
(dp2662
g103
g104
(g105
tp2663
Rp2664
sg108
I00
sg109
I0
sbasg110
I124
sg111
(dp2665
g240
I1
sg113
I1
ssg114
(dp2666
(I0
I0
tp2667
S'GC_39'
p2668
sstp2669
Rp2670
ag0
(g63
g2
(dp2671
g65
g0
(g66
g61
(lp2672
g837
ag1034
ag308
ag226
atp2673
Rp2674
sg94
(lp2675
g2594
asg75
(lp2676
g0
(g98
g61
(lp2677
g847
(I1
I0
tp2678
Rp2679
atp2680
Rp2681
(dp2682
g103
g104
(g105
tp2683
Rp2684
sg108
I00
sg109
I0
sbasg110
I125
sg111
(dp2685
g240
I1
sg113
I1
ssg114
(dp2686
(I0
I0
tp2687
S'GC_42'
p2688
sstp2689
Rp2690
ag0
(g63
g2
(dp2691
g65
g0
(g66
g61
(lp2692
g837
ag1063
ag308
ag226
atp2693
Rp2694
sg94
(lp2695
g2594
asg75
(lp2696
g0
(g98
g61
(lp2697
g847
(I1
I0
tp2698
Rp2699
atp2700
Rp2701
(dp2702
g103
g104
(g105
tp2703
Rp2704
sg108
I00
sg109
I0
sbasg110
I126
sg111
(dp2705
g240
I1
sg113
I1
ssg114
(dp2706
(I0
I0
tp2707
S'GC_45'
p2708
sstp2709
Rp2710
ag0
(g63
g2
(dp2711
g65
g0
(g66
g61
(lp2712
g868
ag1004
ag308
ag226
atp2713
Rp2714
sg94
(lp2715
g2594
asg75
(lp2716
g0
(g98
g61
(lp2717
g847
(I1
I0
tp2718
Rp2719
atp2720
Rp2721
(dp2722
g103
g104
(g105
tp2723
Rp2724
sg108
I00
sg109
I0
sbasg110
I127
sg111
(dp2725
g240
I1
sg113
I1
ssg114
(dp2726
(I0
I0
tp2727
S'GC_40'
p2728
sstp2729
Rp2730
ag0
(g63
g2
(dp2731
g65
g0
(g66
g61
(lp2732
g868
ag1034
ag308
ag226
atp2733
Rp2734
sg94
(lp2735
g2594
asg75
(lp2736
g0
(g98
g61
(lp2737
g847
(I1
I0
tp2738
Rp2739
atp2740
Rp2741
(dp2742
g103
g104
(g105
tp2743
Rp2744
sg108
I00
sg109
I0
sbasg110
I128
sg111
(dp2745
g240
I1
sg113
I1
ssg114
(dp2746
(I0
I0
tp2747
S'GC_43'
p2748
sstp2749
Rp2750
ag0
(g63
g2
(dp2751
g65
g0
(g66
g61
(lp2752
g868
ag1063
ag308
ag226
atp2753
Rp2754
sg94
(lp2755
g2594
asg75
(lp2756
g0
(g98
g61
(lp2757
g847
(I1
I0
tp2758
Rp2759
atp2760
Rp2761
(dp2762
g103
g104
(g105
tp2763
Rp2764
sg108
I00
sg109
I0
sbasg110
I129
sg111
(dp2765
g240
I1
sg113
I1
ssg114
(dp2766
(I0
I0
tp2767
S'GC_46'
p2768
sstp2769
Rp2770
ag0
(g63
g2
(dp2771
g65
g0
(g66
g61
(lp2772
g896
ag1004
ag308
ag226
atp2773
Rp2774
sg94
(lp2775
g2594
asg75
(lp2776
g0
(g98
g61
(lp2777
g847
(I1
I0
tp2778
Rp2779
atp2780
Rp2781
(dp2782
g103
g104
(g105
tp2783
Rp2784
sg108
I00
sg109
I0
sbasg110
I130
sg111
(dp2785
g240
I1
sg113
I1
ssg114
(dp2786
(I0
I0
tp2787
S'GC_41'
p2788
sstp2789
Rp2790
ag0
(g63
g2
(dp2791
g65
g0
(g66
g61
(lp2792
g896
ag1034
ag308
ag226
atp2793
Rp2794
sg94
(lp2795
g2594
asg75
(lp2796
g0
(g98
g61
(lp2797
g847
(I1
I0
tp2798
Rp2799
atp2800
Rp2801
(dp2802
g103
g104
(g105
tp2803
Rp2804
sg108
I00
sg109
I0
sbasg110
I131
sg111
(dp2805
g240
I1
sg113
I1
ssg114
(dp2806
(I0
I0
tp2807
S'GC_44'
p2808
sstp2809
Rp2810
ag0
(g63
g2
(dp2811
g65
g0
(g66
g61
(lp2812
g896
ag1063
ag308
ag226
atp2813
Rp2814
sg94
(lp2815
g2594
asg75
(lp2816
g0
(g98
g61
(lp2817
g847
(I1
I0
tp2818
Rp2819
atp2820
Rp2821
(dp2822
g103
g104
(g105
tp2823
Rp2824
sg108
I00
sg109
I0
sbasg110
I132
sg111
(dp2825
g240
I1
sg113
I1
ssg114
(dp2826
(I0
I0
tp2827
S'GC_47'
p2828
sstp2829
Rp2830
ag0
(g63
g2
(dp2831
g65
g0
(g66
g61
(lp2832
g1001
ag840
ag311
ag226
atp2833
Rp2834
sg94
(lp2835
g2594
asg75
(lp2836
g0
(g98
g61
(lp2837
g847
(I1
I0
tp2838
Rp2839
atp2840
Rp2841
(dp2842
g103
g104
(g105
tp2843
Rp2844
sg108
I00
sg109
I0
sbasg110
I133
sg111
(dp2845
g240
I1
sg113
I1
ssg114
(dp2846
(I0
I0
tp2847
S'GC_101'
p2848
sstp2849
Rp2850
ag0
(g63
g2
(dp2851
g65
g0
(g66
g61
(lp2852
g1031
ag840
ag311
ag226
atp2853
Rp2854
sg94
(lp2855
g2594
asg75
(lp2856
g0
(g98
g61
(lp2857
g847
(I1
I0
tp2858
Rp2859
atp2860
Rp2861
(dp2862
g103
g104
(g105
tp2863
Rp2864
sg108
I00
sg109
I0
sbasg110
I134
sg111
(dp2865
g240
I1
sg113
I1
ssg114
(dp2866
(I0
I0
tp2867
S'GC_107'
p2868
sstp2869
Rp2870
ag0
(g63
g2
(dp2871
g65
g0
(g66
g61
(lp2872
g1060
ag840
ag311
ag226
atp2873
Rp2874
sg94
(lp2875
g2594
asg75
(lp2876
g0
(g98
g61
(lp2877
g847
(I1
I0
tp2878
Rp2879
atp2880
Rp2881
(dp2882
g103
g104
(g105
tp2883
Rp2884
sg108
I00
sg109
I0
sbasg110
I135
sg111
(dp2885
g240
I1
sg113
I1
ssg114
(dp2886
(I0
I0
tp2887
S'GC_113'
p2888
sstp2889
Rp2890
ag0
(g63
g2
(dp2891
g65
g0
(g66
g61
(lp2892
g1001
ag871
ag311
ag226
atp2893
Rp2894
sg94
(lp2895
g2594
asg75
(lp2896
g0
(g98
g61
(lp2897
g847
(I1
I0
tp2898
Rp2899
atp2900
Rp2901
(dp2902
g103
g104
(g105
tp2903
Rp2904
sg108
I00
sg109
I0
sbasg110
I136
sg111
(dp2905
g240
I1
sg113
I1
ssg114
(dp2906
(I0
I0
tp2907
S'GC_103'
p2908
sstp2909
Rp2910
ag0
(g63
g2
(dp2911
g65
g0
(g66
g61
(lp2912
g1031
ag871
ag311
ag226
atp2913
Rp2914
sg94
(lp2915
g2594
asg75
(lp2916
g0
(g98
g61
(lp2917
g847
(I1
I0
tp2918
Rp2919
atp2920
Rp2921
(dp2922
g103
g104
(g105
tp2923
Rp2924
sg108
I00
sg109
I0
sbasg110
I137
sg111
(dp2925
g240
I1
sg113
I1
ssg114
(dp2926
(I0
I0
tp2927
S'GC_109'
p2928
sstp2929
Rp2930
ag0
(g63
g2
(dp2931
g65
g0
(g66
g61
(lp2932
g1060
ag871
ag311
ag226
atp2933
Rp2934
sg94
(lp2935
g2594
asg75
(lp2936
g0
(g98
g61
(lp2937
g847
(I1
I0
tp2938
Rp2939
atp2940
Rp2941
(dp2942
g103
g104
(g105
tp2943
Rp2944
sg108
I00
sg109
I0
sbasg110
I138
sg111
(dp2945
g240
I1
sg113
I1
ssg114
(dp2946
(I0
I0
tp2947
S'GC_115'
p2948
sstp2949
Rp2950
ag0
(g63
g2
(dp2951
g65
g0
(g66
g61
(lp2952
g1001
ag899
ag311
ag226
atp2953
Rp2954
sg94
(lp2955
g2594
asg75
(lp2956
g0
(g98
g61
(lp2957
g847
(I1
I0
tp2958
Rp2959
atp2960
Rp2961
(dp2962
g103
g104
(g105
tp2963
Rp2964
sg108
I00
sg109
I0
sbasg110
I139
sg111
(dp2965
g240
I1
sg113
I1
ssg114
(dp2966
(I0
I0
tp2967
S'GC_105'
p2968
sstp2969
Rp2970
ag0
(g63
g2
(dp2971
g65
g0
(g66
g61
(lp2972
g1031
ag899
ag311
ag226
atp2973
Rp2974
sg94
(lp2975
g2594
asg75
(lp2976
g0
(g98
g61
(lp2977
g847
(I1
I0
tp2978
Rp2979
atp2980
Rp2981
(dp2982
g103
g104
(g105
tp2983
Rp2984
sg108
I00
sg109
I0
sbasg110
I140
sg111
(dp2985
g240
I1
sg113
I1
ssg114
(dp2986
(I0
I0
tp2987
S'GC_111'
p2988
sstp2989
Rp2990
ag0
(g63
g2
(dp2991
g65
g0
(g66
g61
(lp2992
g1060
ag899
ag311
ag226
atp2993
Rp2994
sg94
(lp2995
g2594
asg75
(lp2996
g0
(g98
g61
(lp2997
g847
(I1
I0
tp2998
Rp2999
atp3000
Rp3001
(dp3002
g103
g104
(g105
tp3003
Rp3004
sg108
I00
sg109
I0
sbasg110
I141
sg111
(dp3005
g240
I1
sg113
I1
ssg114
(dp3006
(I0
I0
tp3007
S'GC_117'
p3008
sstp3009
Rp3010
ag0
(g63
g2
(dp3011
g65
g0
(g66
g61
(lp3012
g1001
ag1004
ag148
ag226
atp3013
Rp3014
sg94
(lp3015
g2476
asg75
(lp3016
g0
(g98
g61
(lp3017
g847
(I2
I1
I0
tp3018
Rp3019
atp3020
Rp3021
(dp3022
g103
g104
(g105
tp3023
Rp3024
sg108
I00
sg109
I0
sbasg110
I142
sg111
g2486
sg114
(dp3025
(I0
I0
tp3026
g2489
sstp3027
Rp3028
ag0
(g63
g2
(dp3029
g65
g0
(g66
g61
(lp3030
g1031
ag1034
ag148
ag226
atp3031
Rp3032
sg94
(lp3033
g2476
asg75
(lp3034
g0
(g98
g61
(lp3035
g847
(I2
I1
I0
tp3036
Rp3037
atp3038
Rp3039
(dp3040
g103
g104
(g105
tp3041
Rp3042
sg108
I00
sg109
I0
sbasg110
I143
sg111
g2486
sg114
(dp3043
(I0
I0
tp3044
g2489
sstp3045
Rp3046
ag0
(g63
g2
(dp3047
g65
g0
(g66
g61
(lp3048
g1060
ag1063
ag148
ag226
atp3049
Rp3050
sg94
(lp3051
g2476
asg75
(lp3052
g0
(g98
g61
(lp3053
g847
(I2
I1
I0
tp3054
Rp3055
atp3056
Rp3057
(dp3058
g103
g104
(g105
tp3059
Rp3060
sg108
I00
sg109
I0
sbasg110
I144
sg111
g2486
sg114
(dp3061
(I0
I0
tp3062
g2489
sstp3063
Rp3064
ag0
(g63
g2
(dp3065
g65
g0
(g66
g61
(lp3066
g923
ag926
ag91
ag226
atp3067
Rp3068
sg94
(lp3069
g2533
asg75
(lp3070
g0
(g98
g61
(lp3071
tp3072
Rp3073
(dp3074
g103
g104
(g105
tp3075
Rp3076
sg108
I00
sg109
I0
sbasg110
I145
sg111
(dp3077
g240
I1
sg113
I1
ssg114
(dp3078
(I0
I0
tp3079
S'GC_83'
p3080
sstp3081
Rp3082
ag0
(g63
g2
(dp3083
g65
g0
(g66
g61
(lp3084
g950
ag953
ag91
ag226
atp3085
Rp3086
sg94
(lp3087
g2533
asg75
(lp3088
g0
(g98
g61
(lp3089
tp3090
Rp3091
(dp3092
g103
g104
(g105
tp3093
Rp3094
sg108
I00
sg109
I0
sbasg110
I146
sg111
(dp3095
g240
I1
sg113
I1
ssg114
(dp3096
(I0
I0
tp3097
S'GC_86'
p3098
sstp3099
Rp3100
ag0
(g63
g2
(dp3101
g65
g0
(g66
g61
(lp3102
g976
ag979
ag91
ag226
atp3103
Rp3104
sg94
(lp3105
g2533
asg75
(lp3106
g0
(g98
g61
(lp3107
tp3108
Rp3109
(dp3110
g103
g104
(g105
tp3111
Rp3112
sg108
I00
sg109
I0
sbasg110
I147
sg111
(dp3113
g240
I1
sg113
I1
ssg114
(dp3114
(I0
I0
tp3115
S'GC_95'
p3116
sstp3117
Rp3118
ag0
(g63
g2
(dp3119
g65
g0
(g66
g61
(lp3120
g1001
ag1004
ag91
ag226
atp3121
Rp3122
sg94
(lp3123
g2533
asg75
(lp3124
g0
(g98
g61
(lp3125
g847
(I1
I0
tp3126
Rp3127
atp3128
Rp3129
(dp3130
g103
g104
(g105
tp3131
Rp3132
sg108
I00
sg109
I0
sbasg110
I148
sg111
(dp3133
g240
I1
sg113
I1
ssg114
(dp3134
(I0
I0
tp3135
S'GC_98'
p3136
sstp3137
Rp3138
ag0
(g63
g2
(dp3139
g65
g0
(g66
g61
(lp3140
g1031
ag1034
ag91
ag226
atp3141
Rp3142
sg94
(lp3143
g2533
asg75
(lp3144
g0
(g98
g61
(lp3145
g847
(I1
I0
tp3146
Rp3147
atp3148
Rp3149
(dp3150
g103
g104
(g105
tp3151
Rp3152
sg108
I00
sg109
I0
sbasg110
I149
sg111
(dp3153
g240
I1
sg113
I1
ssg114
(dp3154
(I0
I0
tp3155
S'GC_77'
p3156
sstp3157
Rp3158
ag0
(g63
g2
(dp3159
g65
g0
(g66
g61
(lp3160
g1060
ag1063
ag91
ag226
atp3161
Rp3162
sg94
(lp3163
g2533
asg75
(lp3164
g0
(g98
g61
(lp3165
g847
(I1
I0
tp3166
Rp3167
atp3168
Rp3169
(dp3170
g103
g104
(g105
tp3171
Rp3172
sg108
I00
sg109
I0
sbasg110
I150
sg111
(dp3173
g240
I1
sg113
I1
ssg114
(dp3174
(I0
I0
tp3175
S'GC_92'
p3176
sstp3177
Rp3178
ag0
(g63
g2
(dp3179
g65
g0
(g66
g61
(lp3180
g923
ag926
ag338
ag226
atp3181
Rp3182
sg94
(lp3183
g2594
aS'FFVT5'
p3184
asg75
(lp3185
g0
(g98
g61
(lp3186
tp3187
Rp3188
(dp3189
g103
g104
(g105
tp3190
Rp3191
sg108
I00
sg109
I0
sbasg110
I151
sg111
(dp3192
g240
I1
sg113
I1
ssg114
(dp3193
(I0
I1
tp3194
S'GC_57'
p3195
s(I0
I0
tp3196
g2610
sstp3197
Rp3198
ag0
(g63
g2
(dp3199
g65
g0
(g66
g61
(lp3200
g950
ag953
ag338
ag226
atp3201
Rp3202
sg94
(lp3203
g2594
ag3184
asg75
(lp3204
g0
(g98
g61
(lp3205
tp3206
Rp3207
(dp3208
g103
g104
(g105
tp3209
Rp3210
sg108
I00
sg109
I0
sbasg110
I152
sg111
g3192
sg114
(dp3211
(I0
I1
tp3212
g3195
s(I0
I0
tp3213
g2610
sstp3214
Rp3215
ag0
(g63
g2
(dp3216
g65
g0
(g66
g61
(lp3217
g976
ag979
ag338
ag226
atp3218
Rp3219
sg94
(lp3220
g2594
ag3184
asg75
(lp3221
g0
(g98
g61
(lp3222
tp3223
Rp3224
(dp3225
g103
g104
(g105
tp3226
Rp3227
sg108
I00
sg109
I0
sbasg110
I153
sg111
g3192
sg114
(dp3228
(I0
I1
tp3229
g3195
s(I0
I0
tp3230
g2610
sstp3231
Rp3232
ag0
(g63
g2
(dp3233
g65
g0
(g66
g61
(lp3234
g923
ag1869
ag308
ag226
atp3235
Rp3236
sg94
(lp3237
g2594
asg75
(lp3238
g0
(g98
g61
(lp3239
tp3240
Rp3241
(dp3242
g103
g104
(g105
tp3243
Rp3244
sg108
I00
sg109
I0
sbasg110
I154
sg111
(dp3245
g240
I1
sg113
I1
ssg114
(dp3246
(I0
I0
tp3247
S'GC_38'
p3248
sstp3249
Rp3250
ag0
(g63
g2
(dp3251
g65
g0
(g66
g61
(lp3252
g950
ag1895
ag308
ag226
atp3253
Rp3254
sg94
(lp3255
g2594
asg75
(lp3256
g0
(g98
g61
(lp3257
tp3258
Rp3259
(dp3260
g103
g104
(g105
tp3261
Rp3262
sg108
I00
sg109
I0
sbasg110
I155
sg111
g3245
sg114
(dp3263
(I0
I0
tp3264
g3248
sstp3265
Rp3266
ag0
(g63
g2
(dp3267
g65
g0
(g66
g61
(lp3268
g976
ag1920
ag308
ag226
atp3269
Rp3270
sg94
(lp3271
g2594
asg75
(lp3272
g0
(g98
g61
(lp3273
tp3274
Rp3275
(dp3276
g103
g104
(g105
tp3277
Rp3278
sg108
I00
sg109
I0
sbasg110
I156
sg111
g3245
sg114
(dp3279
(I0
I0
tp3280
g3248
sstp3281
Rp3282
ag0
(g63
g2
(dp3283
g65
g0
(g66
g61
(lp3284
g1866
ag926
ag311
ag226
atp3285
Rp3286
sg94
(lp3287
g2594
asg75
(lp3288
g0
(g98
g61
(lp3289
tp3290
Rp3291
(dp3292
g103
g104
(g105
tp3293
Rp3294
sg108
I00
sg109
I0
sbasg110
I157
sg111
g3245
sg114
(dp3295
(I0
I0
tp3296
g3248
sstp3297
Rp3298
ag0
(g63
g2
(dp3299
g65
g0
(g66
g61
(lp3300
g1892
ag953
ag311
ag226
atp3301
Rp3302
sg94
(lp3303
g2594
asg75
(lp3304
g0
(g98
g61
(lp3305
tp3306
Rp3307
(dp3308
g103
g104
(g105
tp3309
Rp3310
sg108
I00
sg109
I0
sbasg110
I158
sg111
g3245
sg114
(dp3311
(I0
I0
tp3312
g3248
sstp3313
Rp3314
ag0
(g63
g2
(dp3315
g65
g0
(g66
g61
(lp3316
g1917
ag979
ag311
ag226
atp3317
Rp3318
sg94
(lp3319
g2594
asg75
(lp3320
g0
(g98
g61
(lp3321
tp3322
Rp3323
(dp3324
g103
g104
(g105
tp3325
Rp3326
sg108
I00
sg109
I0
sbasg110
I159
sg111
g3245
sg114
(dp3327
(I0
I0
tp3328
g3248
sstp3329
Rp3330
ag0
(g63
g2
(dp3331
g65
g0
(g66
g61
(lp3332
g1001
ag1004
ag338
ag226
atp3333
Rp3334
sg94
(lp3335
g2594
aS'FFVT6'
p3336
asg75
(lp3337
g0
(g98
g61
(lp3338
g847
(I1
I0
tp3339
Rp3340
atp3341
Rp3342
(dp3343
g103
g104
(g105
tp3344
Rp3345
sg108
I00
sg109
I0
sbasg110
I160
sg111
g2605
sg114
(dp3346
(I0
I1
tp3347
g2608
s(I0
I0
tp3348
S'GC_49'
p3349
sstp3350
Rp3351
ag0
(g63
g2
(dp3352
g65
g0
(g66
g61
(lp3353
g1031
ag1034
ag338
ag226
atp3354
Rp3355
sg94
(lp3356
g2594
ag3336
asg75
(lp3357
g0
(g98
g61
(lp3358
g847
(I1
I0
tp3359
Rp3360
atp3361
Rp3362
(dp3363
g103
g104
(g105
tp3364
Rp3365
sg108
I00
sg109
I0
sbasg110
I161
sg111
g2605
sg114
(dp3366
(I0
I1
tp3367
g2608
s(I0
I0
tp3368
g3349
sstp3369
Rp3370
ag0
(g63
g2
(dp3371
g65
g0
(g66
g61
(lp3372
g1060
ag1063
ag338
ag226
atp3373
Rp3374
sg94
(lp3375
g2594
ag3336
asg75
(lp3376
g0
(g98
g61
(lp3377
g847
(I1
I0
tp3378
Rp3379
atp3380
Rp3381
(dp3382
g103
g104
(g105
tp3383
Rp3384
sg108
I00
sg109
I0
sbasg110
I162
sg111
g2605
sg114
(dp3385
(I0
I1
tp3386
g2608
s(I0
I0
tp3387
g3349
sstp3388
Rp3389
ag0
(g63
g2
(dp3390
g65
g0
(g66
g61
(lp3391
g1866
ag1869
ag338
ag226
atp3392
Rp3393
sg94
(lp3394
g2594
asg75
(lp3395
g0
(g98
g61
(lp3396
tp3397
Rp3398
(dp3399
g103
g104
(g105
tp3400
Rp3401
sg108
I00
sg109
I0
sbasg110
I163
sg111
(dp3402
g240
I1
sg113
I1
ssg114
(dp3403
(I0
I0
tp3404
S'GC_60'
p3405
sstp3406
Rp3407
ag0
(g63
g2
(dp3408
g65
g0
(g66
g61
(lp3409
g1892
ag1895
ag338
ag226
atp3410
Rp3411
sg94
(lp3412
g2594
asg75
(lp3413
g0
(g98
g61
(lp3414
tp3415
Rp3416
(dp3417
g103
g104
(g105
tp3418
Rp3419
sg108
I00
sg109
I0
sbasg110
I164
sg111
g3402
sg114
(dp3420
(I0
I0
tp3421
g3405
sstp3422
Rp3423
ag0
(g63
g2
(dp3424
g65
g0
(g66
g61
(lp3425
g1917
ag1920
ag338
ag226
atp3426
Rp3427
sg94
(lp3428
g2594
asg75
(lp3429
g0
(g98
g61
(lp3430
tp3431
Rp3432
(dp3433
g103
g104
(g105
tp3434
Rp3435
sg108
I00
sg109
I0
sbasg110
I165
sg111
g3402
sg114
(dp3436
(I0
I0
tp3437
g3405
sstp3438
Rp3439
atp3440
Rp3441
sS'ref_dict_to1'
p3442
(dp3443
sS'conserved_charge'
p3444
c__builtin__
set
p3445
((lp3446
g83
ag78
atp3447
Rp3448
sg65
g0
(g66
g61
(lp3449
g1869
ag1895
ag1920
ag926
ag953
ag979
ag1004
ag1034
ag1063
ag840
ag871
ag899
ag256
ag338
ag311
ag148
ag91
ag226
atp3450
Rp3451
sg94
NsS'got_majoranas'
p3452
NsS'particle_dict'
p3453
(dp3454
I1
g840
sI2
g1004
sI3
g871
sI4
g1034
sI5
g899
sI6
g1063
sI11
g926
sI12
g1869
sI13
g953
sI14
g1895
sI15
g979
sI16
g1920
sI21
g148
sI22
g256
sI23
g338
sI24
g311
sI25
g91
sI9000006
g226
sI-2
g1001
sI-24
g308
sI-16
g1917
sI-15
g976
sI-14
g1892
sI-13
g950
sI-12
g1866
sI-11
g923
sI-6
g1060
sI-5
g896
sI-4
g1031
sI-3
g868
sI-1
g837
ssS'parameters'
p3455
(dp3456
(S'aEWM1'
p3457
tp3458
(lp3459
g0
(cmadgraph.core.base_objects
ModelVariable
p3460
g7
Ntp3461
Rp3462
(dp3463
g11
S'1/aEWM1'
p3464
sS'type'
p3465
S'real'
p3466
sg13
S'aEW'
p3467
sS'value'
p3468
NsS'depend'
p3469
g3458
sbag0
(g3460
g7
Ntp3470
Rp3471
(dp3472
g11
S' cmath.sqrt(aEW) '
p3473
sg3465
g3466
sg13
S'sqrt__aEW'
p3474
sg3468
Nsg3469
(g3457
tp3475
sbag0
(g3460
g7
Ntp3476
Rp3477
(dp3478
g11
S'2*sqrt__aEW*cmath.sqrt(cmath.pi)'
p3479
sg3465
g3466
sg13
S'ee'
p3480
sg3468
Nsg3469
(g3457
tp3481
sbag0
(g3460
g7
Ntp3482
Rp3483
(dp3484
g11
S'ee/cw'
p3485
sg3465
g3466
sg13
S'g1'
p3486
sg3468
Nsg3469
(g3457
tp3487
sbag0
(g3460
g7
Ntp3488
Rp3489
(dp3490
g11
S'ee/sw'
p3491
sg3465
g3466
sg13
S'gw'
p3492
sg3468
Nsg3469
(g3457
tp3493
sbag0
(g3460
g7
Ntp3494
Rp3495
(dp3496
g11
S'(2*MW*sw)/ee'
p3497
sg3465
g3466
sg13
S'v'
p3498
sg3468
Nsg3469
(g3457
tp3499
sbag0
(g3460
g7
Ntp3500
Rp3501
(dp3502
g11
S'v**2'
p3503
sg3465
g3466
sg13
S'v__exp__2'
p3504
sg3468
Nsg3469
(g3457
tp3505
sbag0
(g3460
g7
Ntp3506
Rp3507
(dp3508
g11
S'MH__exp__2/(2.*v__exp__2)'
p3509
sg3465
g3466
sg13
S'lam'
p3510
sg3468
Nsg3469
(g3457
tp3511
sbag0
(g3460
g7
Ntp3512
Rp3513
(dp3514
g11
S'(ymb*sqrt__2)/v'
p3515
sg3465
g3466
sg13
S'yb'
p3516
sg3468
Nsg3469
(g3457
tp3517
sbag0
(g3460
g7
Ntp3518
Rp3519
(dp3520
g11
S'(ymc*sqrt__2)/v'
p3521
sg3465
g3466
sg13
S'yc'
p3522
sg3468
Nsg3469
(g3457
tp3523
sbag0
(g3460
g7
Ntp3524
Rp3525
(dp3526
g11
S'(ymt*sqrt__2)/v'
p3527
sg3465
g3466
sg13
S'yt'
p3528
sg3468
Nsg3469
(g3457
tp3529
sbag0
(g3460
g7
Ntp3530
Rp3531
(dp3532
g11
S'(ymtau*sqrt__2)/v'
p3533
sg3465
g3466
sg13
S'ytau'
p3534
sg3468
Nsg3469
(g3457
tp3535
sbag0
(g3460
g7
Ntp3536
Rp3537
(dp3538
g11
S'cmath.sqrt(lam*v__exp__2)'
p3539
sg3465
g3466
sg13
S'muH'
p3540
sg3468
Nsg3469
(g3457
tp3541
sbag0
(g3460
g7
Ntp3542
Rp3543
(dp3544
g11
S'gw**2'
p3545
sg3465
g3466
sg13
S'gw__exp__2'
p3546
sg3468
Nsg3469
(g3457
tp3547
sbag0
(g3460
g7
Ntp3548
Rp3549
(dp3550
g11
S'ee**2'
p3551
sg3465
g3466
sg13
S'ee__exp__2'
p3552
sg3468
Nsg3469
(g3457
tp3553
sbag0
(g3460
g7
Ntp3554
Rp3555
(dp3556
g11
S'muH**2'
p3557
sg3465
g3466
sg13
S'muH__exp__2'
p3558
sg3468
Nsg3469
(g3457
tp3559
sbas(S'external'
p3560
tp3561
(lp3562
g0
(cmadgraph.core.base_objects
ParamCardVariable
p3563
g7
Ntp3564
Rp3565
(dp3566
S'lhablock'
p3567
S'CKMBLOCK'
p3568
sg13
S'cabi'
p3569
sg3468
F0.488
sS'lhacode'
p3570
(lp3571
I1
asbag0
(g3563
g7
Ntp3572
Rp3573
(dp3574
g3567
S'SMINPUTS'
p3575
sg13
S'aEWM1'
p3576
sg3468
F127.9
sg3570
(lp3577
I1
asbag0
(g3563
g7
Ntp3578
Rp3579
(dp3580
g3567
g3575
sg13
S'Gf'
p3581
sg3468
F1.166e-05
sg3570
(lp3582
I2
asbag0
(g3563
g7
Ntp3583
Rp3584
(dp3585
g3567
g3575
sg13
S'aS'
p3586
sg3468
F0.118
sg3570
(lp3587
I3
asbag0
(g3563
g7
Ntp3588
Rp3589
(dp3590
g3567
S'YUKAWA'
p3591
sg13
S'ymc'
p3592
sg3468
F1.42
sg3570
(lp3593
I4
asbag0
(g3563
g7
Ntp3594
Rp3595
(dp3596
g3567
g3591
sg13
S'ymb'
p3597
sg3468
F4.2
sg3570
(lp3598
I5
asbag0
(g3563
g7
Ntp3599
Rp3600
(dp3601
g3567
g3591
sg13
S'ymt'
p3602
sg3468
F174.3
sg3570
(lp3603
I6
asbag0
(g3563
g7
Ntp3604
Rp3605
(dp3606
g3567
g3591
sg13
S'ymtau'
p3607
sg3468
F1.777
sg3570
(lp3608
I15
asbag0
(g3563
g7
Ntp3609
Rp3610
(dp3611
g3567
S'FRBlock'
p3612
sg13
S'LRS'
p3613
sg3468
I4000
sg3570
(lp3614
I1
asbag0
(g3563
g7
Ntp3615
Rp3616
(dp3617
g3567
g3612
sg13
S'sw2'
p3618
sg3468
F0.2312
sg3570
(lp3619
I2
asbag0
(g3563
g7
Ntp3620
Rp3621
(dp3622
g3567
S'MASS'
p3623
sg13
g973
sg3468
F1.777
sg3570
(lp3624
I15
asbag0
(g3563
g7
Ntp3625
Rp3626
(dp3627
g3567
g3623
sg13
g1028
sg3468
F1.42
sg3570
(lp3628
I4
asbag0
(g3563
g7
Ntp3629
Rp3630
(dp3631
g3567
g3623
sg13
g1057
sg3468
F174.3
sg3570
(lp3632
I6
asbag0
(g3563
g7
Ntp3633
Rp3634
(dp3635
g3567
g3623
sg13
g893
sg3468
F4.2
sg3570
(lp3636
I5
asbag0
(g3563
g7
Ntp3637
Rp3638
(dp3639
g3567
g3623
sg13
g335
sg3468
F91.5445065
sg3570
(lp3640
I23
asbag0
(g3563
g7
Ntp3641
Rp3642
(dp3643
g3567
g3623
sg13
g305
sg3468
F80.2673592
sg3570
(lp3644
I24
asbag0
(g3563
g7
Ntp3645
Rp3646
(dp3647
g3567
g3623
sg13
g80
sg3468
I100
sg3570
(lp3648
I25
asbag0
(g3563
g7
Ntp3649
Rp3650
(dp3651
g3567
g3623
sg13
g222
sg3468
I500
sg3570
(lp3652
I9000006
asbag0
(g3563
g7
Ntp3653
Rp3654
(dp3655
g3567
S'DECAY'
p3656
sg13
g1056
sg3468
F1.50833649
sg3570
(lp3657
I6
asbag0
(g3563
g7
Ntp3658
Rp3659
(dp3660
g3567
g3656
sg13
g334
sg3468
F2.44639985
sg3570
(lp3661
I23
asbag0
(g3563
g7
Ntp3662
Rp3663
(dp3664
g3567
g3656
sg13
g304
sg3468
F2.0353557
sg3570
(lp3665
I24
asbag0
(g3563
g7
Ntp3666
Rp3667
(dp3668
g3567
g3656
sg13
g77
sg3468
F0.004276087
sg3570
(lp3669
I25
asbas(t(lp3670
g0
(g3460
g7
Ntp3671
Rp3672
(dp3673
g11
S'cmath.sqrt(1 - sw2)'
p3674
sg3465
g3466
sg13
S'cw'
p3675
sg3468
Nsg3469
(tsbag0
(g3460
g7
Ntp3676
Rp3677
(dp3678
g11
S' cmath.sqrt(sw2) '
p3679
sg3465
g3466
sg13
S'sqrt__sw2'
p3680
sg3468
Nsg3469
(tsbag0
(g3460
g7
Ntp3681
Rp3682
(dp3683
g11
g3680
sg3465
g3466
sg13
S'sw'
p3684
sg3468
Nsg3469
(tsbag0
(g3460
g7
Ntp3685
Rp3686
(dp3687
g11
S'0'
p3688
sg3465
g3466
sg13
S'ye'
p3689
sg3468
Nsg3469
(tsbag0
(g3460
g7
Ntp3690
Rp3691
(dp3692
g11
g3688
sg3465
g3466
sg13
S'ym'
p3693
sg3468
Nsg3469
(tsbag0
(g3460
g7
Ntp3694
Rp3695
(dp3696
g11
g3688
sg3465
g3466
sg13
S'yu'
p3697
sg3468
Nsg3469
(tsbag0
(g3460
g7
Ntp3698
Rp3699
(dp3700
g11
g3688
sg3465
g3466
sg13
S'yd'
p3701
sg3468
Nsg3469
(tsbag0
(g3460
g7
Ntp3702
Rp3703
(dp3704
g11
g3688
sg3465
g3466
sg13
S'ys'
p3705
sg3468
Nsg3469
(tsbag0
(g3460
g7
Ntp3706
Rp3707
(dp3708
g11
g105
sg3465
S'complex'
p3709
sg13
S'CKM11'
p3710
sg3468
Nsg3469
(tsbag0
(g3460
g7
Ntp3711
Rp3712
(dp3713
g11
g3688
sg3465
g3709
sg13
S'CKM12'
p3714
sg3468
Nsg3469
(tsbag0
(g3460
g7
Ntp3715
Rp3716
(dp3717
g11
g3688
sg3465
g3709
sg13
S'CKM13'
p3718
sg3468
Nsg3469
(tsbag0
(g3460
g7
Ntp3719
Rp3720
(dp3721
g11
g3688
sg3465
g3709
sg13
S'CKM21'
p3722
sg3468
Nsg3469
(tsbag0
(g3460
g7
Ntp3723
Rp3724
(dp3725
g11
g105
sg3465
g3709
sg13
S'CKM22'
p3726
sg3468
Nsg3469
(tsbag0
(g3460
g7
Ntp3727
Rp3728
(dp3729
g11
g3688
sg3465
g3709
sg13
S'CKM23'
p3730
sg3468
Nsg3469
(tsbag0
(g3460
g7
Ntp3731
Rp3732
(dp3733
g11
g3688
sg3465
g3709
sg13
S'CKM31'
p3734
sg3468
Nsg3469
(tsbag0
(g3460
g7
Ntp3735
Rp3736
(dp3737
g11
g3688
sg3465
g3709
sg13
S'CKM32'
p3738
sg3468
Nsg3469
(tsbag0
(g3460
g7
Ntp3739
Rp3740
(dp3741
g11
g105
sg3465
g3709
sg13
S'CKM33'
p3742
sg3468
Nsg3469
(tsbag0
(g3460
g7
Ntp3743
Rp3744
(dp3745
g11
S'2/LRS'
p3746
sg3465
g3466
sg13
S'kappa'
p3747
sg3468
Nsg3469
(tsbag0
(g3460
g7
Ntp3748
Rp3749
(dp3750
g11
S'MH**2'
p3751
sg3465
g3466
sg13
S'MH__exp__2'
p3752
sg3468
Nsg3469
(tsbag0
(g3460
g7
Ntp3753
Rp3754
(dp3755
g11
S' cmath.sqrt(2) '
p3756
sg3465
g3466
sg13
S'sqrt__2'
p3757
sg3468
Nsg3469
(tsbag0
(g3460
g7
Ntp3758
Rp3759
(dp3760
g11
S'complex(0,1)'
p3761
sg3465
g3709
sg13
S'complexi'
p3762
sg3468
Nsg3469
(tsbag0
(g3460
g7
Ntp3763
Rp3764
(dp3765
g11
S'cw**2'
p3766
sg3465
g3466
sg13
S'cw__exp__2'
p3767
sg3468
Nsg3469
(tsbag0
(g3460
g7
Ntp3768
Rp3769
(dp3770
g11
S'sw**2'
p3771
sg3465
g3466
sg13
S'sw__exp__2'
p3772
sg3468
Nsg3469
(tsbag0
(g3460
g7
Ntp3773
Rp3774
(dp3775
g11
S' complexconjugate(CKM11) '
p3776
sg3465
g3709
sg13
S'conjg__CKM11'
p3777
sg3468
Nsg3469
(tsbag0
(g3460
g7
Ntp3778
Rp3779
(dp3780
g11
S' complexconjugate(CKM12) '
p3781
sg3465
g3709
sg13
S'conjg__CKM12'
p3782
sg3468
Nsg3469
(tsbag0
(g3460
g7
Ntp3783
Rp3784
(dp3785
g11
S' complexconjugate(CKM13) '
p3786
sg3465
g3709
sg13
S'conjg__CKM13'
p3787
sg3468
Nsg3469
(tsbag0
(g3460
g7
Ntp3788
Rp3789
(dp3790
g11
S' complexconjugate(CKM21) '
p3791
sg3465
g3709
sg13
S'conjg__CKM21'
p3792
sg3468
Nsg3469
(tsbag0
(g3460
g7
Ntp3793
Rp3794
(dp3795
g11
S' complexconjugate(CKM22) '
p3796
sg3465
g3709
sg13
S'conjg__CKM22'
p3797
sg3468
Nsg3469
(tsbag0
(g3460
g7
Ntp3798
Rp3799
(dp3800
g11
S' complexconjugate(CKM23) '
p3801
sg3465
g3709
sg13
S'conjg__CKM23'
p3802
sg3468
Nsg3469
(tsbag0
(g3460
g7
Ntp3803
Rp3804
(dp3805
g11
S' complexconjugate(CKM31) '
p3806
sg3465
g3709
sg13
S'conjg__CKM31'
p3807
sg3468
Nsg3469
(tsbag0
(g3460
g7
Ntp3808
Rp3809
(dp3810
g11
S' complexconjugate(CKM32) '
p3811
sg3465
g3709
sg13
S'conjg__CKM32'
p3812
sg3468
Nsg3469
(tsbag0
(g3460
g7
Ntp3813
Rp3814
(dp3815
g11
S' complexconjugate(CKM33) '
p3816
sg3465
g3709
sg13
S'conjg__CKM33'
p3817
sg3468
Nsg3469
(tsbas(S'aS'
p3818
tp3819
(lp3820
g0
(g3460
g7
Ntp3821
Rp3822
(dp3823
g11
S' cmath.sqrt(aS) '
p3824
sg3465
g3466
sg13
S'sqrt__aS'
p3825
sg3468
Nsg3469
g3819
sbag0
(g3460
g7
Ntp3826
Rp3827
(dp3828
g11
S'2*sqrt__aS*cmath.sqrt(cmath.pi)'
p3829
sg3465
g3466
sg13
g142
sg3468
Nsg3469
(g3818
tp3830
sbag0
(g3460
g7
Ntp3831
Rp3832
(dp3833
g11
S'G**2'
p3834
sg3465
g3466
sg13
S'G__exp__2'
p3835
sg3468
Nsg3469
(g3818
tp3836
sbassg114
(dp3837
(g3457
tp3838
(lp3839
g0
(g3460
g7
Ntp3840
Rp3841
(dp3842
g11
S'-(ee*complexi)/3.'
p3843
sg3465
g3709
sg13
g858
sg3468
Nsg3469
g3838
sbag0
(g3460
g7
Ntp3844
Rp3845
(dp3846
g11
S'(2*ee*complexi)/3.'
p3847
sg3465
g3709
sg13
g1020
sg3468
Nsg3469
(g3457
tp3848
sbag0
(g3460
g7
Ntp3849
Rp3850
(dp3851
g11
S'-(ee*complexi)'
p3852
sg3465
g3709
sg13
g940
sg3468
Nsg3469
(g3457
tp3853
sbag0
(g3460
g7
Ntp3854
Rp3855
(dp3856
g11
S'cw*complexi*gw'
p3857
sg3465
g3709
sg13
g569
sg3468
Nsg3469
(g3457
tp3858
sbag0
(g3460
g7
Ntp3859
Rp3860
(dp3861
g11
S'-(complexi*gw__exp__2)'
p3862
sg3465
g3709
sg13
g662
sg3468
Nsg3469
(g3457
tp3863
sbag0
(g3460
g7
Ntp3864
Rp3865
(dp3866
g11
S'cw__exp__2*complexi*gw__exp__2'
p3867
sg3465
g3709
sg13
g772
sg3468
Nsg3469
(g3457
tp3868
sbag0
(g3460
g7
Ntp3869
Rp3870
(dp3871
g11
S'-(ee*complexi*kappa)/6.'
p3872
sg3465
g3709
sg13
g2328
sg3468
Nsg3469
(g3457
tp3873
sbag0
(g3460
g7
Ntp3874
Rp3875
(dp3876
g11
S'(ee*complexi*kappa)/3.'
p3877
sg3465
g3709
sg13
g2432
sg3468
Nsg3469
(g3457
tp3878
sbag0
(g3460
g7
Ntp3879
Rp3880
(dp3881
g11
S'-(ee*complexi*kappa)/2.'
p3882
sg3465
g3709
sg13
g494
sg3468
Nsg3469
(g3457
tp3883
sbag0
(g3460
g7
Ntp3884
Rp3885
(dp3886
g11
S'ee__exp__2*complexi*kappa'
p3887
sg3465
g3709
sg13
g626
sg3468
Nsg3469
(g3457
tp3888
sbag0
(g3460
g7
Ntp3889
Rp3890
(dp3891
g11
S'-6*complexi*lam'
p3892
sg3465
g3709
sg13
g117
sg3468
Nsg3469
(g3457
tp3893
sbag0
(g3460
g7
Ntp3894
Rp3895
(dp3896
g11
S'-3*complexi*kappa*lam'
p3897
sg3465
g3709
sg13
g439
sg3468
Nsg3469
(g3457
tp3898
sbag0
(g3460
g7
Ntp3899
Rp3900
(dp3901
g11
S'(ee__exp__2*complexi)/(2.*sw__exp__2)'
p3902
sg3465
g3709
sg13
g513
sg3468
Nsg3469
(g3457
tp3903
sbag0
(g3460
g7
Ntp3904
Rp3905
(dp3906
g11
S'-(ee__exp__2*complexi*kappa)/(4.*sw__exp__2)'
p3907
sg3465
g3709
sg13
g588
sg3468
Nsg3469
(g3457
tp3908
sbag0
(g3460
g7
Ntp3909
Rp3910
(dp3911
g11
S'-((ee__exp__2*complexi*kappa)/sw__exp__2)'
p3912
sg3465
g3709
sg13
g680
sg3468
Nsg3469
(g3457
tp3913
sbag0
(g3460
g7
Ntp3914
Rp3915
(dp3916
g11
S'(cw__exp__2*ee__exp__2*complexi*kappa)/sw__exp__2'
p3917
sg3465
g3709
sg13
g826
sg3468
Nsg3469
(g3457
tp3918
sbag0
(g3460
g7
Ntp3919
Rp3920
(dp3921
g11
S'(ee*complexi)/(sw*sqrt__2)'
p3922
sg3465
g3709
sg13
g2118
sg3468
Nsg3469
(g3457
tp3923
sbag0
(g3460
g7
Ntp3924
Rp3925
(dp3926
g11
S'(CKM11*ee*complexi)/(sw*sqrt__2)'
p3927
sg3465
g3709
sg13
g1342
sg3468
Nsg3469
(g3457
tp3928
sbag0
(g3460
g7
Ntp3929
Rp3930
(dp3931
g11
S'(CKM12*ee*complexi)/(sw*sqrt__2)'
p3932
sg3465
g3709
sg13
g1402
sg3468
Nsg3469
(g3457
tp3933
sbag0
(g3460
g7
Ntp3934
Rp3935
(dp3936
g11
S'(CKM13*ee*complexi)/(sw*sqrt__2)'
p3937
sg3465
g3709
sg13
g1462
sg3468
Nsg3469
(g3457
tp3938
sbag0
(g3460
g7
Ntp3939
Rp3940
(dp3941
g11
S'(CKM21*ee*complexi)/(sw*sqrt__2)'
p3942
sg3465
g3709
sg13
g1362
sg3468
Nsg3469
(g3457
tp3943
sbag0
(g3460
g7
Ntp3944
Rp3945
(dp3946
g11
S'(CKM22*ee*complexi)/(sw*sqrt__2)'
p3947
sg3465
g3709
sg13
g1422
sg3468
Nsg3469
(g3457
tp3948
sbag0
(g3460
g7
Ntp3949
Rp3950
(dp3951
g11
S'(CKM23*ee*complexi)/(sw*sqrt__2)'
p3952
sg3465
g3709
sg13
g1482
sg3468
Nsg3469
(g3457
tp3953
sbag0
(g3460
g7
Ntp3954
Rp3955
(dp3956
g11
S'(CKM31*ee*complexi)/(sw*sqrt__2)'
p3957
sg3465
g3709
sg13
g1382
sg3468
Nsg3469
(g3457
tp3958
sbag0
(g3460
g7
Ntp3959
Rp3960
(dp3961
g11
S'(CKM32*ee*complexi)/(sw*sqrt__2)'
p3962
sg3465
g3709
sg13
g1442
sg3468
Nsg3469
(g3457
tp3963
sbag0
(g3460
g7
Ntp3964
Rp3965
(dp3966
g11
S'(CKM33*ee*complexi)/(sw*sqrt__2)'
p3967
sg3465
g3709
sg13
g1502
sg3468
Nsg3469
(g3457
tp3968
sbag0
(g3460
g7
Ntp3969
Rp3970
(dp3971
g11
S'-(cw*ee*complexi)/(2.*sw)'
p3972
sg3465
g3709
sg13
g1284
sg3468
Nsg3469
(g3457
tp3973
sbag0
(g3460
g7
Ntp3974
Rp3975
(dp3976
g11
S'(cw*ee*complexi)/(2.*sw)'
p3977
sg3465
g3709
sg13
g2219
sg3468
Nsg3469
(g3457
tp3978
sbag0
(g3460
g7
Ntp3979
Rp3980
(dp3981
g11
S'(ee*complexi*kappa)/(2.*sw*sqrt__2)'
p3982
sg3465
g3709
sg13
g3248
sg3468
Nsg3469
(g3457
tp3983
sbag0
(g3460
g7
Ntp3984
Rp3985
(dp3986
g11
S'(CKM11*ee*complexi*kappa)/(2.*sw*sqrt__2)'
p3987
sg3465
g3709
sg13
g2668
sg3468
Nsg3469
(g3457
tp3988
sbag0
(g3460
g7
Ntp3989
Rp3990
(dp3991
g11
S'(CKM12*ee*complexi*kappa)/(2.*sw*sqrt__2)'
p3992
sg3465
g3709
sg13
g2728
sg3468
Nsg3469
(g3457
tp3993
sbag0
(g3460
g7
Ntp3994
Rp3995
(dp3996
g11
S'(CKM13*ee*complexi*kappa)/(2.*sw*sqrt__2)'
p3997
sg3465
g3709
sg13
g2788
sg3468
Nsg3469
(g3457
tp3998
sbag0
(g3460
g7
Ntp3999
Rp4000
(dp4001
g11
S'(CKM21*ee*complexi*kappa)/(2.*sw*sqrt__2)'
p4002
sg3465
g3709
sg13
g2688
sg3468
Nsg3469
(g3457
tp4003
sbag0
(g3460
g7
Ntp4004
Rp4005
(dp4006
g11
S'(CKM22*ee*complexi*kappa)/(2.*sw*sqrt__2)'
p4007
sg3465
g3709
sg13
g2748
sg3468
Nsg3469
(g3457
tp4008
sbag0
(g3460
g7
Ntp4009
Rp4010
(dp4011
g11
S'(CKM23*ee*complexi*kappa)/(2.*sw*sqrt__2)'
p4012
sg3465
g3709
sg13
g2808
sg3468
Nsg3469
(g3457
tp4013
sbag0
(g3460
g7
Ntp4014
Rp4015
(dp4016
g11
S'(CKM31*ee*complexi*kappa)/(2.*sw*sqrt__2)'
p4017
sg3465
g3709
sg13
g2708
sg3468
Nsg3469
(g3457
tp4018
sbag0
(g3460
g7
Ntp4019
Rp4020
(dp4021
g11
S'(CKM32*ee*complexi*kappa)/(2.*sw*sqrt__2)'
p4022
sg3465
g3709
sg13
g2768
sg3468
Nsg3469
(g3457
tp4023
sbag0
(g3460
g7
Ntp4024
Rp4025
(dp4026
g11
S'(CKM33*ee*complexi*kappa)/(2.*sw*sqrt__2)'
p4027
sg3465
g3709
sg13
g2828
sg3468
Nsg3469
(g3457
tp4028
sbag0
(g3460
g7
Ntp4029
Rp4030
(dp4031
g11
S'-(cw*ee*complexi*kappa)/(4.*sw)'
p4032
sg3465
g3709
sg13
g2610
sg3468
Nsg3469
(g3457
tp4033
sbag0
(g3460
g7
Ntp4034
Rp4035
(dp4036
g11
S'(cw*ee*complexi*kappa)/(4.*sw)'
p4037
sg3465
g3709
sg13
g3349
sg3468
Nsg3469
(g3457
tp4038
sbag0
(g3460
g7
Ntp4039
Rp4040
(dp4041
g11
S'-(cw*ee*complexi*kappa)/(2.*sw)'
p4042
sg3465
g3709
sg13
g644
sg3468
Nsg3469
(g3457
tp4043
sbag0
(g3460
g7
Ntp4044
Rp4045
(dp4046
g11
S'-(cw*ee__exp__2*complexi*kappa)/(2.*sw)'
p4047
sg3465
g3709
sg13
g718
sg3468
Nsg3469
(g3457
tp4048
sbag0
(g3460
g7
Ntp4049
Rp4050
(dp4051
g11
S'-(ee*complexi*sw)/(6.*cw)'
p4052
sg3465
g3709
sg13
g1282
sg3468
Nsg3469
(g3457
tp4053
sbag0
(g3460
g7
Ntp4054
Rp4055
(dp4056
g11
S'(ee*complexi*sw)/(2.*cw)'
p4057
sg3465
g3709
sg13
g2065
sg3468
Nsg3469
(g3457
tp4058
sbag0
(g3460
g7
Ntp4059
Rp4060
(dp4061
g11
S'complexi*gw*sw'
p4062
sg3465
g3709
sg13
g476
sg3468
Nsg3469
(g3457
tp4063
sbag0
(g3460
g7
Ntp4064
Rp4065
(dp4066
g11
S'-2*cw*complexi*gw__exp__2*sw'
p4067
sg3465
g3709
sg13
g699
sg3468
Nsg3469
(g3457
tp4068
sbag0
(g3460
g7
Ntp4069
Rp4070
(dp4071
g11
S'-(ee*complexi*kappa*sw)/(12.*cw)'
p4072
sg3465
g3709
sg13
g2608
sg3468
Nsg3469
(g3457
tp4073
sbag0
(g3460
g7
Ntp4074
Rp4075
(dp4076
g11
S'(ee*complexi*kappa*sw)/(4.*cw)'
p4077
sg3465
g3709
sg13
g3195
sg3468
Nsg3469
(g3457
tp4078
sbag0
(g3460
g7
Ntp4079
Rp4080
(dp4081
g11
S'complexi*gw__exp__2*sw__exp__2'
p4082
sg3465
g3709
sg13
g551
sg3468
Nsg3469
(g3457
tp4083
sbag0
(g3460
g7
Ntp4084
Rp4085
(dp4086
g11
S'(cw*ee*complexi)/(2.*sw) + (ee*complexi*sw)/(2.*cw)'
p4087
sg3465
g3709
sg13
g2275
sg3468
Nsg3469
(g3457
tp4088
sbag0
(g3460
g7
Ntp4089
Rp4090
(dp4091
g11
S'(cw*ee*complexi*kappa)/(4.*sw) + (ee*complexi*kappa*sw)/(4.*cw)'
p4092
sg3465
g3709
sg13
g3405
sg3468
Nsg3469
(g3457
tp4093
sbag0
(g3460
g7
Ntp4094
Rp4095
(dp4096
g11
S'ee__exp__2*complexi + (cw__exp__2*ee__exp__2*complexi)/(2.*sw__exp__2) + (ee__exp__2*complexi*sw__exp__2)/(2.*cw__exp__2)'
p4097
sg3465
g3709
sg13
g736
sg3468
Nsg3469
(g3457
tp4098
sbag0
(g3460
g7
Ntp4099
Rp4100
(dp4101
g11
S'-(ee__exp__2*complexi*kappa)/2. - (cw__exp__2*ee__exp__2*complexi*kappa)/(4.*sw__exp__2) - (ee__exp__2*complexi*kappa*sw__exp__2)/(4.*cw__exp__2)'
p4102
sg3465
g3709
sg13
g790
sg3468
Nsg3469
(g3457
tp4103
sbag0
(g3460
g7
Ntp4104
Rp4105
(dp4106
g11
S'-6*complexi*lam*v'
p4107
sg3465
g3709
sg13
g136
sg3468
Nsg3469
(g3457
tp4108
sbag0
(g3460
g7
Ntp4109
Rp4110
(dp4111
g11
S'-3*complexi*kappa*lam*v'
p4112
sg3465
g3709
sg13
g458
sg3468
Nsg3469
(g3457
tp4113
sbag0
(g3460
g7
Ntp4114
Rp4115
(dp4116
g11
S'(ee__exp__2*complexi*v)/(2.*sw__exp__2)'
p4117
sg3465
g3709
sg13
g532
sg3468
Nsg3469
(g3457
tp4118
sbag0
(g3460
g7
Ntp4119
Rp4120
(dp4121
g11
S'-(ee__exp__2*complexi*kappa*v)/(4.*sw__exp__2)'
p4122
sg3465
g3709
sg13
g607
sg3468
Nsg3469
(g3457
tp4123
sbag0
(g3460
g7
Ntp4124
Rp4125
(dp4126
g11
S'-(ee__exp__2*complexi*kappa*v__exp__2)/(8.*sw__exp__2)'
p4127
sg3465
g3709
sg13
g326
sg3468
Nsg3469
(g3457
tp4128
sbag0
(g3460
g7
Ntp4129
Rp4130
(dp4131
g11
S'ee__exp__2*complexi*v + (cw__exp__2*ee__exp__2*complexi*v)/(2.*sw__exp__2) + (ee__exp__2*complexi*sw__exp__2*v)/(2.*cw__exp__2)'
p4132
sg3465
g3709
sg13
g754
sg3468
Nsg3469
(g3457
tp4133
sbag0
(g3460
g7
Ntp4134
Rp4135
(dp4136
g11
S'-(ee__exp__2*complexi*kappa*v)/2. - (cw__exp__2*ee__exp__2*complexi*kappa*v)/(4.*sw__exp__2) - (ee__exp__2*complexi*kappa*sw__exp__2*v)/(4.*cw__exp__2)'
p4137
sg3465
g3709
sg13
g808
sg3468
Nsg3469
(g3457
tp4138
sbag0
(g3460
g7
Ntp4139
Rp4140
(dp4141
g11
S'(complexi*kappa*muH__exp__2)/2. - (3*complexi*kappa*lam*v__exp__2)/2.'
p4142
sg3465
g3709
sg13
g245
sg3468
Nsg3469
(g3457
tp4143
sbag0
(g3460
g7
Ntp4144
Rp4145
(dp4146
g11
S'-(ee__exp__2*complexi*kappa*v__exp__2)/4. - (cw__exp__2*ee__exp__2*complexi*kappa*v__exp__2)/(8.*sw__exp__2) - (ee__exp__2*complexi*kappa*sw__exp__2*v__exp__2)/(8.*cw__exp__2)'
p4147
sg3465
g3709
sg13
g352
sg3468
Nsg3469
(g3457
tp4148
sbag0
(g3460
g7
Ntp4149
Rp4150
(dp4151
g11
S'-((complexi*yb)/sqrt__2)'
p4152
sg3465
g3709
sg13
g1260
sg3468
Nsg3469
(g3457
tp4153
sbag0
(g3460
g7
Ntp4154
Rp4155
(dp4156
g11
S'-(complexi*kappa*yb)/(2.*sqrt__2)'
p4157
sg3465
g3709
sg13
g2586
sg3468
Nsg3469
(g3457
tp4158
sbag0
(g3460
g7
Ntp4159
Rp4160
(dp4161
g11
S'-(complexi*kappa*v*yb)/(2.*sqrt__2)'
p4162
sg3465
g3709
sg13
g1198
sg3468
Nsg3469
(g3457
tp4163
sbag0
(g3460
g7
Ntp4164
Rp4165
(dp4166
g11
S'-((complexi*yc)/sqrt__2)'
p4167
sg3465
g3709
sg13
g2026
sg3468
Nsg3469
(g3457
tp4168
sbag0
(g3460
g7
Ntp4169
Rp4170
(dp4171
g11
S'-(complexi*kappa*yc)/(2.*sqrt__2)'
p4172
sg3465
g3709
sg13
g3156
sg3468
Nsg3469
(g3457
tp4173
sbag0
(g3460
g7
Ntp4174
Rp4175
(dp4176
g11
S'-(complexi*kappa*v*yc)/(2.*sqrt__2)'
p4177
sg3465
g3709
sg13
g1834
sg3468
Nsg3469
(g3457
tp4178
sbag0
(g3460
g7
Ntp4179
Rp4180
(dp4181
g11
S'-(complexi*kappa*v*yd)/(2.*sqrt__2)'
p4182
sg3465
g3709
sg13
g1155
sg3468
Nsg3469
(g3457
tp4183
sbag0
(g3460
g7
Ntp4184
Rp4185
(dp4186
g11
S'-(complexi*kappa*v*ye)/(2.*sqrt__2)'
p4187
sg3465
g3709
sg13
g1754
sg3468
Nsg3469
(g3457
tp4188
sbag0
(g3460
g7
Ntp4189
Rp4190
(dp4191
g11
S'-(complexi*kappa*v*ym)/(2.*sqrt__2)'
p4192
sg3465
g3709
sg13
g1773
sg3468
Nsg3469
(g3457
tp4193
sbag0
(g3460
g7
Ntp4194
Rp4195
(dp4196
g11
S'-(complexi*kappa*v*ys)/(2.*sqrt__2)'
p4197
sg3465
g3709
sg13
g1177
sg3468
Nsg3469
(g3457
tp4198
sbag0
(g3460
g7
Ntp4199
Rp4200
(dp4201
g11
S'-((complexi*yt)/sqrt__2)'
p4202
sg3465
g3709
sg13
g2046
sg3468
Nsg3469
(g3457
tp4203
sbag0
(g3460
g7
Ntp4204
Rp4205
(dp4206
g11
S'-(complexi*kappa*yt)/(2.*sqrt__2)'
p4207
sg3465
g3709
sg13
g3176
sg3468
Nsg3469
(g3457
tp4208
sbag0
(g3460
g7
Ntp4209
Rp4210
(dp4211
g11
S'-(complexi*kappa*v*yt)/(2.*sqrt__2)'
p4212
sg3465
g3709
sg13
g1855
sg3468
Nsg3469
(g3457
tp4213
sbag0
(g3460
g7
Ntp4214
Rp4215
(dp4216
g11
S'-((complexi*ytau)/sqrt__2)'
p4217
sg3465
g3709
sg13
g1986
sg3468
Nsg3469
(g3457
tp4218
sbag0
(g3460
g7
Ntp4219
Rp4220
(dp4221
g11
S'-(complexi*kappa*ytau)/(2.*sqrt__2)'
p4222
sg3465
g3709
sg13
g3116
sg3468
Nsg3469
(g3457
tp4223
sbag0
(g3460
g7
Ntp4224
Rp4225
(dp4226
g11
S'-(complexi*kappa*v*ytau)/(2.*sqrt__2)'
p4227
sg3465
g3709
sg13
g1792
sg3468
Nsg3469
(g3457
tp4228
sbag0
(g3460
g7
Ntp4229
Rp4230
(dp4231
g11
S'-(complexi*kappa*v*yu)/(2.*sqrt__2)'
p4232
sg3465
g3709
sg13
g1813
sg3468
Nsg3469
(g3457
tp4233
sbag0
(g3460
g7
Ntp4234
Rp4235
(dp4236
g11
S'(ee*complexi*conjg__CKM11)/(sw*sqrt__2)'
p4237
sg3465
g3709
sg13
g1522
sg3468
Nsg3469
(g3457
tp4238
sbag0
(g3460
g7
Ntp4239
Rp4240
(dp4241
g11
S'(ee*complexi*kappa*conjg__CKM11)/(2.*sw*sqrt__2)'
p4242
sg3465
g3709
sg13
g2848
sg3468
Nsg3469
(g3457
tp4243
sbag0
(g3460
g7
Ntp4244
Rp4245
(dp4246
g11
S'(ee*complexi*conjg__CKM12)/(sw*sqrt__2)'
p4247
sg3465
g3709
sg13
g1582
sg3468
Nsg3469
(g3457
tp4248
sbag0
(g3460
g7
Ntp4249
Rp4250
(dp4251
g11
S'(ee*complexi*kappa*conjg__CKM12)/(2.*sw*sqrt__2)'
p4252
sg3465
g3709
sg13
g2908
sg3468
Nsg3469
(g3457
tp4253
sbag0
(g3460
g7
Ntp4254
Rp4255
(dp4256
g11
S'(ee*complexi*conjg__CKM13)/(sw*sqrt__2)'
p4257
sg3465
g3709
sg13
g1642
sg3468
Nsg3469
(g3457
tp4258
sbag0
(g3460
g7
Ntp4259
Rp4260
(dp4261
g11
S'(ee*complexi*kappa*conjg__CKM13)/(2.*sw*sqrt__2)'
p4262
sg3465
g3709
sg13
g2968
sg3468
Nsg3469
(g3457
tp4263
sbag0
(g3460
g7
Ntp4264
Rp4265
(dp4266
g11
S'(ee*complexi*conjg__CKM21)/(sw*sqrt__2)'
p4267
sg3465
g3709
sg13
g1542
sg3468
Nsg3469
(g3457
tp4268
sbag0
(g3460
g7
Ntp4269
Rp4270
(dp4271
g11
S'(ee*complexi*kappa*conjg__CKM21)/(2.*sw*sqrt__2)'
p4272
sg3465
g3709
sg13
g2868
sg3468
Nsg3469
(g3457
tp4273
sbag0
(g3460
g7
Ntp4274
Rp4275
(dp4276
g11
S'(ee*complexi*conjg__CKM22)/(sw*sqrt__2)'
p4277
sg3465
g3709
sg13
g1602
sg3468
Nsg3469
(g3457
tp4278
sbag0
(g3460
g7
Ntp4279
Rp4280
(dp4281
g11
S'(ee*complexi*kappa*conjg__CKM22)/(2.*sw*sqrt__2)'
p4282
sg3465
g3709
sg13
g2928
sg3468
Nsg3469
(g3457
tp4283
sbag0
(g3460
g7
Ntp4284
Rp4285
(dp4286
g11
S'(ee*complexi*conjg__CKM23)/(sw*sqrt__2)'
p4287
sg3465
g3709
sg13
g1662
sg3468
Nsg3469
(g3457
tp4288
sbag0
(g3460
g7
Ntp4289
Rp4290
(dp4291
g11
S'(ee*complexi*kappa*conjg__CKM23)/(2.*sw*sqrt__2)'
p4292
sg3465
g3709
sg13
g2988
sg3468
Nsg3469
(g3457
tp4293
sbag0
(g3460
g7
Ntp4294
Rp4295
(dp4296
g11
S'(ee*complexi*conjg__CKM31)/(sw*sqrt__2)'
p4297
sg3465
g3709
sg13
g1562
sg3468
Nsg3469
(g3457
tp4298
sbag0
(g3460
g7
Ntp4299
Rp4300
(dp4301
g11
S'(ee*complexi*kappa*conjg__CKM31)/(2.*sw*sqrt__2)'
p4302
sg3465
g3709
sg13
g2888
sg3468
Nsg3469
(g3457
tp4303
sbag0
(g3460
g7
Ntp4304
Rp4305
(dp4306
g11
S'(ee*complexi*conjg__CKM32)/(sw*sqrt__2)'
p4307
sg3465
g3709
sg13
g1622
sg3468
Nsg3469
(g3457
tp4308
sbag0
(g3460
g7
Ntp4309
Rp4310
(dp4311
g11
S'(ee*complexi*kappa*conjg__CKM32)/(2.*sw*sqrt__2)'
p4312
sg3465
g3709
sg13
g2948
sg3468
Nsg3469
(g3457
tp4313
sbag0
(g3460
g7
Ntp4314
Rp4315
(dp4316
g11
S'(ee*complexi*conjg__CKM33)/(sw*sqrt__2)'
p4317
sg3465
g3709
sg13
g1682
sg3468
Nsg3469
(g3457
tp4318
sbag0
(g3460
g7
Ntp4319
Rp4320
(dp4321
g11
S'(ee*complexi*kappa*conjg__CKM33)/(2.*sw*sqrt__2)'
p4322
sg3465
g3709
sg13
g3008
sg3468
Nsg3469
(g3457
tp4323
sbas(t(lp4324
g0
(g3460
g7
Ntp4325
Rp4326
(dp4327
g11
S'(complexi*kappa)/8.'
p4328
sg3465
g3709
sg13
g1157
sg3468
Nsg3469
(tsbag0
(g3460
g7
Ntp4329
Rp4330
(dp4331
g11
S'-(complexi*kappa)/2.'
p4332
sg3465
g3709
sg13
g296
sg3468
Nsg3469
(tsbag0
(g3460
g7
Ntp4333
Rp4334
(dp4335
g11
S'(complexi*kappa)/2.'
p4336
sg3465
g3709
sg13
g243
sg3468
Nsg3469
(tsbag0
(g3460
g7
Ntp4337
Rp4338
(dp4339
g11
S'-(cw__exp__2*complexi*kappa)/2. - (complexi*kappa*sw__exp__2)/2.'
p4340
sg3465
g3709
sg13
g272
sg3468
Nsg3469
(tsbag0
(g3460
g7
Ntp4341
Rp4342
(dp4343
g11
S'-((complexi*yd)/sqrt__2)'
p4344
sg3465
g3709
sg13
g1220
sg3468
Nsg3469
(tsbag0
(g3460
g7
Ntp4345
Rp4346
(dp4347
g11
S'-(complexi*kappa*yd)/(2.*sqrt__2)'
p4348
sg3465
g3709
sg13
g2546
sg3468
Nsg3469
(tsbag0
(g3460
g7
Ntp4349
Rp4350
(dp4351
g11
S'-((complexi*ye)/sqrt__2)'
p4352
sg3465
g3709
sg13
g1950
sg3468
Nsg3469
(tsbag0
(g3460
g7
Ntp4353
Rp4354
(dp4355
g11
S'-(complexi*kappa*ye)/(2.*sqrt__2)'
p4356
sg3465
g3709
sg13
g3080
sg3468
Nsg3469
(tsbag0
(g3460
g7
Ntp4357
Rp4358
(dp4359
g11
S'-((complexi*ym)/sqrt__2)'
p4360
sg3465
g3709
sg13
g1968
sg3468
Nsg3469
(tsbag0
(g3460
g7
Ntp4361
Rp4362
(dp4363
g11
S'-(complexi*kappa*ym)/(2.*sqrt__2)'
p4364
sg3465
g3709
sg13
g3098
sg3468
Nsg3469
(tsbag0
(g3460
g7
Ntp4365
Rp4366
(dp4367
g11
S'-((complexi*ys)/sqrt__2)'
p4368
sg3465
g3709
sg13
g1240
sg3468
Nsg3469
(tsbag0
(g3460
g7
Ntp4369
Rp4370
(dp4371
g11
S'-(complexi*kappa*ys)/(2.*sqrt__2)'
p4372
sg3465
g3709
sg13
g2566
sg3468
Nsg3469
(tsbag0
(g3460
g7
Ntp4373
Rp4374
(dp4375
g11
S'-((complexi*yu)/sqrt__2)'
p4376
sg3465
g3709
sg13
g2006
sg3468
Nsg3469
(tsbag0
(g3460
g7
Ntp4377
Rp4378
(dp4379
g11
S'-(complexi*kappa*yu)/(2.*sqrt__2)'
p4380
sg3465
g3709
sg13
g3136
sg3468
Nsg3469
(tsbas(g3818
tp4381
(lp4382
g0
(g3460
g7
Ntp4383
Rp4384
(dp4385
g11
S'-G'
p4386
sg3465
g3709
sg13
g167
sg3468
Nsg3469
g4381
sbag0
(g3460
g7
Ntp4387
Rp4388
(dp4389
g11
S'complexi*G'
p4390
sg3465
g3709
sg13
g1097
sg3468
Nsg3469
(g3818
tp4391
sbag0
(g3460
g7
Ntp4392
Rp4393
(dp4394
g11
S'complexi*G__exp__2'
p4395
sg3465
g3709
sg13
g212
sg3468
Nsg3469
(g3818
tp4396
sbag0
(g3460
g7
Ntp4397
Rp4398
(dp4399
g11
S'-(complexi*G*kappa)/4.'
p4400
sg3465
g3709
sg13
g2489
sg3468
Nsg3469
(g3818
tp4401
sbag0
(g3460
g7
Ntp4402
Rp4403
(dp4404
g11
S'(G*kappa)/2.'
p4405
sg3465
g3709
sg13
g373
sg3468
Nsg3469
(g3818
tp4406
sbag0
(g3460
g7
Ntp4407
Rp4408
(dp4409
g11
S'(complexi*G__exp__2*kappa)/2.'
p4410
sg3465
g3709
sg13
g418
sg3468
Nsg3469
(g3818
tp4411
sbasstp4412
Rp4413
.