ccopy_reg
_reconstructor
p0
(cmadgraph.core.base_objects
Model
p1
c__builtin__
dict
p2
(dp3
S'functions'
p4
(lp5
g0
(cmodels.my_smallsm.object_library
Function
p6
c__builtin__
object
p7
Ntp8
Rp9
(dp10
S'expr'
p11
S'z.conjugate()'
p12
sS'name'
p13
S'complexconjugate'
p14
sS'arguments'
p15
(S'z'
p16
tp17
sbag0
(g6
g7
Ntp18
Rp19
(dp20
g11
S'z.real'
p21
sg13
S're'
p22
sg15
(g16
tp23
sbag0
(g6
g7
Ntp24
Rp25
(dp26
g11
S'z.imag'
p27
sg13
S'im'
p28
sg15
(g16
tp29
sbag0
(g6
g7
Ntp30
Rp31
(dp32
g11
S'1./cos(z)'
p33
sg13
S'sec'
p34
sg15
(g16
tp35
sbag0
(g6
g7
Ntp36
Rp37
(dp38
g11
S'acos(1./z)'
p39
sg13
S'asec'
p40
sg15
(g16
tp41
sbag0
(g6
g7
Ntp42
Rp43
(dp44
g11
S'1./sin(z)'
p45
sg13
S'csc'
p46
sg15
(g16
tp47
sbag0
(g6
g7
Ntp48
Rp49
(dp50
g11
S'asin(1./z)'
p51
sg13
S'acsc'
p52
sg15
(g16
tp53
sbasS'interaction_dict'
p54
(dp55
sg13
S'my_smallsm'
p56
sS'ref_dict_to0'
p57
(dp58
sS'interactions'
p59
g0
(cmadgraph.core.base_objects
InteractionList
p60
c__builtin__
list
p61
(lp62
g0
(cmadgraph.core.base_objects
Interaction
p63
g2
(dp64
S'particles'
p65
g0
(cmadgraph.core.base_objects
ParticleList
p66
g61
(lp67
g0
(cmadgraph.core.base_objects
Particle
p68
g2
(dp69
S'texname'
p70
S'A'
p71
sS'propagating'
p72
I01
sg13
S'a'
p73
sS'self_antipart'
p74
I01
sS'color'
p75
I1
sS'width'
p76
S'ZERO'
p77
sS'charge'
p78
F0.0
sS'mass'
p79
g77
sS'antiname'
p80
S'a'
p81
sS'line'
p82
S'wavy'
p83
sS'is_part'
p84
I01
sS'spin'
p85
I3
sS'antitexname'
p86
g71
sS'pdg_code'
p87
I22
stp88
Rp89
ag0
(g68
g2
(dp90
g70
S'W+'
p91
sg84
I00
sg13
S'w+'
p92
sg74
I00
sg75
I1
sg76
S'WW'
p93
sg78
F1.0
sg79
S'MW'
p94
sg80
S'w-'
p95
sg82
g83
sg72
I01
sg85
I3
sg86
g91
sg87
I24
stp96
Rp97
ag0
(g68
g2
(dp98
g70
g91
sg72
I01
sg13
g92
sg74
I00
sg75
I1
sg76
g93
sg78
F1.0
sg79
g94
sg80
g95
sg82
g83
sg84
I01
sg85
I3
sg86
g91
sg87
I24
stp99
Rp100
atp101
Rp102
sS'lorentz'
p103
(lp104
S'VVV1'
p105
asg75
(lp106
g0
(cmadgraph.core.color_algebra
ColorString
p107
g61
(lp108
tp109
Rp110
(dp111
S'coeff'
p112
cfractions
Fraction
p113
(S'1'
p114
tp115
Rp116
sS'is_imaginary'
p117
I00
sS'Nc_power'
p118
I0
sbasS'id'
p119
I1
sS'orders'
p120
(dp121
S'QED'
p122
I1
ssS'couplings'
p123
(dp124
(I0
I0
tp125
S'GC_49'
p126
sstp127
Rp128
ag0
(g63
g2
(dp129
g65
g0
(g66
g61
(lp130
g89
ag89
ag97
ag100
atp131
Rp132
sg103
(lp133
S'VVVV2'
p134
asg75
(lp135
g0
(g107
g61
(lp136
tp137
Rp138
(dp139
g112
g116
sg117
I00
sg118
I0
sbasg119
I2
sg120
(dp140
g122
I2
ssg123
(dp141
(I0
I0
tp142
S'GC_51'
p143
sstp144
Rp145
ag0
(g63
g2
(dp146
g65
g0
(g66
g61
(lp147
g97
ag97
ag100
ag100
atp148
Rp149
sg103
(lp150
g134
asg75
(lp151
g0
(g107
g61
(lp152
tp153
Rp154
(dp155
g112
g116
sg117
I00
sg118
I0
sbasg119
I3
sg120
(dp156
g122
I2
ssg123
(dp157
(I0
I0
tp158
S'GC_13'
p159
sstp160
Rp161
ag0
(g63
g2
(dp162
g65
g0
(g66
g61
(lp163
g0
(g68
g2
(dp164
g70
S'b'
p165
sg84
I00
sg13
S'b'
p166
sg74
I00
sg75
I3
sg76
g77
sg78
F-0.33333333333333331
sg79
S'MB'
p167
sg80
S'b~'
p168
sg82
S'straight'
p169
sg72
I01
sg85
I2
sg86
g165
sg87
I5
stp170
Rp171
ag0
(g68
g2
(dp172
g70
g165
sg72
I01
sg13
g166
sg74
I00
sg75
I3
sg76
g77
sg78
F-0.33333333333333331
sg79
g167
sg80
g168
sg82
g169
sg84
I01
sg85
I2
sg86
g165
sg87
I5
stp173
Rp174
ag89
atp175
Rp176
sg103
(lp177
S'FFV1'
p178
asg75
(lp179
g0
(g107
g61
(lp180
cmadgraph.core.color_algebra
T
p181
(I1
I0
tp182
Rp183
atp184
Rp185
(dp186
g112
g116
sg117
I00
sg118
I0
sbasg119
I4
sg120
(dp187
g122
I1
ssg123
(dp188
(I0
I0
tp189
S'GC_1'
p190
sstp191
Rp192
ag0
(g63
g2
(dp193
g65
g0
(g66
g61
(lp194
g0
(g68
g2
(dp195
g70
S'e-'
p196
sg84
I00
sg13
S'e-'
p197
sg74
I00
sg75
I1
sg76
g77
sg78
F-1.0
sg79
g77
sg80
S'e+'
p198
sg82
g169
sg72
I01
sg85
I2
sg86
g196
sg87
I11
stp199
Rp200
ag0
(g68
g2
(dp201
g70
g196
sg72
I01
sg13
g197
sg74
I00
sg75
I1
sg76
g77
sg78
F-1.0
sg79
g77
sg80
g198
sg82
g169
sg84
I01
sg85
I2
sg86
g196
sg87
I11
stp202
Rp203
ag89
atp204
Rp205
sg103
(lp206
g178
asg75
(lp207
g0
(g107
g61
(lp208
tp209
Rp210
(dp211
g112
g116
sg117
I00
sg118
I0
sbasg119
I5
sg120
(dp212
g122
I1
ssg123
(dp213
(I0
I0
tp214
S'GC_3'
p215
sstp216
Rp217
ag0
(g63
g2
(dp218
g65
g0
(g66
g61
(lp219
g0
(g68
g2
(dp220
g70
S't'
p221
sg84
I00
sg13
S't'
p222
sg74
I00
sg75
I3
sg76
S'WT'
p223
sg78
F0.66666666666666663
sg79
S'MT'
p224
sg80
S't~'
p225
sg82
g169
sg72
I01
sg85
I2
sg86
g221
sg87
I6
stp226
Rp227
ag0
(g68
g2
(dp228
g70
g221
sg72
I01
sg13
g222
sg74
I00
sg75
I3
sg76
g223
sg78
F0.66666666666666663
sg79
g224
sg80
g225
sg82
g169
sg84
I01
sg85
I2
sg86
g221
sg87
I6
stp229
Rp230
ag89
atp231
Rp232
sg103
(lp233
g178
asg75
(lp234
g0
(g107
g61
(lp235
g181
(I1
I0
tp236
Rp237
atp238
Rp239
(dp240
g112
g116
sg117
I00
sg118
I0
sbasg119
I6
sg120
(dp241
g122
I1
ssg123
(dp242
(I0
I0
tp243
S'GC_2'
p244
sstp245
Rp246
ag0
(g63
g2
(dp247
g65
g0
(g66
g61
(lp248
g171
ag230
ag97
atp249
Rp250
sg103
(lp251
S'FFV2'
p252
asg75
(lp253
g0
(g107
g61
(lp254
g181
(I1
I0
tp255
Rp256
atp257
Rp258
(dp259
g112
g116
sg117
I00
sg118
I0
sbasg119
I7
sg120
(dp260
g122
I1
ssg123
(dp261
(I0
I0
tp262
S'GC_33'
p263
sstp264
Rp265
ag0
(g63
g2
(dp266
g65
g0
(g66
g61
(lp267
g227
ag174
ag100
atp268
Rp269
sg103
(lp270
g252
asg75
(lp271
g0
(g107
g61
(lp272
g181
(I1
I0
tp273
Rp274
atp275
Rp276
(dp277
g112
g116
sg117
I00
sg118
I0
sbasg119
I8
sg120
(dp278
g122
I1
ssg123
(dp279
(I0
I0
tp280
S'GC_134'
p281
sstp282
Rp283
ag0
(g63
g2
(dp284
g65
g0
(g66
g61
(lp285
g200
ag0
(g68
g2
(dp286
g70
S've'
p287
sg72
I01
sg13
S've'
p288
sg74
I00
sg75
I1
sg76
g77
sg78
F0.0
sg79
g77
sg80
S've~'
p289
sg82
g169
sg84
I01
sg85
I2
sg86
g287
sg87
I12
stp290
Rp291
ag97
atp292
Rp293
sg103
(lp294
g252
asg75
(lp295
g0
(g107
g61
(lp296
tp297
Rp298
(dp299
g112
g116
sg117
I00
sg118
I0
sbasg119
I9
sg120
(dp300
g122
I1
ssg123
(dp301
(I0
I0
tp302
S'GC_24'
p303
sstp304
Rp305
ag0
(g63
g2
(dp306
g65
g0
(g66
g61
(lp307
g0
(g68
g2
(dp308
g70
g287
sg84
I00
sg13
g288
sg74
I00
sg75
I1
sg76
g77
sg78
F0.0
sg79
g77
sg80
g289
sg82
g169
sg72
I01
sg85
I2
sg86
g287
sg87
I12
stp309
Rp310
ag203
ag100
atp311
Rp312
sg103
(lp313
g252
asg75
(lp314
g0
(g107
g61
(lp315
tp316
Rp317
(dp318
g112
g116
sg117
I00
sg118
I0
sbasg119
I10
sg120
(dp319
g122
I1
ssg123
(dp320
(I0
I0
tp321
g303
sstp322
Rp323
atp324
Rp325
sS'ref_dict_to1'
p326
(dp327
sg65
g0
(g66
g61
(lp328
g291
ag203
ag230
ag174
ag89
ag100
atp329
Rp330
sg103
(dp331
sS'got_majoranas'
p332
NsS'particle_dict'
p333
(dp334
I5
g174
sI6
g230
sI-24
g97
sI11
g203
sI12
g291
sI-12
g310
sI-11
g200
sI22
g89
sI24
g100
sI-6
g227
sI-5
g171
ssS'parameters'
p335
(dp336
(S'aEWM1'
p337
tp338
(lp339
g0
(cmadgraph.iolibs.import_ufo
ParamExpr
p340
g7
Ntp341
Rp342
(dp343
g11
S'1/aEWM1'
p344
sS'type'
p345
S'real'
p346
sg13
S'aEW'
p347
sS'depend'
p348
g338
sbag0
(g340
g7
Ntp349
Rp350
(dp351
g11
S'cmath.sqrt(MZ__exp__2/2. + cmath.sqrt(MZ__exp__4/4. - (aEW*cmath.pi*MZ__exp__2)/(Gf*sqrt__2)))'
p352
sg345
g346
sg13
g94
sg348
(g337
tp353
sbag0
(g340
g7
Ntp354
Rp355
(dp356
g11
S' cmath.sqrt(aEW) '
p357
sg345
g346
sg13
S'sqrt__aEW'
p358
sg348
(g337
tp359
sbag0
(g340
g7
Ntp360
Rp361
(dp362
g11
S'2*sqrt__aEW*cmath.sqrt(cmath.pi)'
p363
sg345
g346
sg13
S'ee'
p364
sg348
(g337
tp365
sbag0
(g340
g7
Ntp366
Rp367
(dp368
g11
S'MW**2'
p369
sg345
g346
sg13
S'MW__exp__2'
p370
sg348
(g337
tp371
sbag0
(g340
g7
Ntp372
Rp373
(dp374
g11
S'1 - MW__exp__2/MZ__exp__2'
p375
sg345
g346
sg13
S'sw2'
p376
sg348
(g337
tp377
sbag0
(g340
g7
Ntp378
Rp379
(dp380
g11
S'cmath.sqrt(1 - sw2)'
p381
sg345
g346
sg13
S'cw'
p382
sg348
(g337
tp383
sbag0
(g340
g7
Ntp384
Rp385
(dp386
g11
S' cmath.sqrt(sw2) '
p387
sg345
g346
sg13
S'sqrt__sw2'
p388
sg348
(g337
tp389
sbag0
(g340
g7
Ntp390
Rp391
(dp392
g11
g388
sg345
g346
sg13
S'sw'
p393
sg348
(g337
tp394
sbag0
(g340
g7
Ntp395
Rp396
(dp397
g11
S'ee/cw'
p398
sg345
g346
sg13
S'g1'
p399
sg348
(g337
tp400
sbag0
(g340
g7
Ntp401
Rp402
(dp403
g11
S'ee/sw'
p404
sg345
g346
sg13
S'gw'
p405
sg348
(g337
tp406
sbag0
(g340
g7
Ntp407
Rp408
(dp409
g11
S'(2*MW*sw)/ee'
p410
sg345
g346
sg13
S'v'
p411
sg348
(g337
tp412
sbag0
(g340
g7
Ntp413
Rp414
(dp415
g11
S'v**2'
p416
sg345
g346
sg13
S'v__exp__2'
p417
sg348
(g337
tp418
sbag0
(g340
g7
Ntp419
Rp420
(dp421
g11
S'MH__exp__2/(2.*v__exp__2)'
p422
sg345
g346
sg13
S'lam'
p423
sg348
(g337
tp424
sbag0
(g340
g7
Ntp425
Rp426
(dp427
g11
S'(ymb*sqrt__2)/v'
p428
sg345
g346
sg13
S'yb'
p429
sg348
(g337
tp430
sbag0
(g340
g7
Ntp431
Rp432
(dp433
g11
S'(ymc*sqrt__2)/v'
p434
sg345
g346
sg13
S'yc'
p435
sg348
(g337
tp436
sbag0
(g340
g7
Ntp437
Rp438
(dp439
g11
S'(ymt*sqrt__2)/v'
p440
sg345
g346
sg13
S'yt'
p441
sg348
(g337
tp442
sbag0
(g340
g7
Ntp443
Rp444
(dp445
g11
S'(ymtau*sqrt__2)/v'
p446
sg345
g346
sg13
S'ytau'
p447
sg348
(g337
tp448
sbag0
(g340
g7
Ntp449
Rp450
(dp451
g11
S'cmath.sqrt(lam*v__exp__2)'
p452
sg345
g346
sg13
S'muH'
p453
sg348
(g337
tp454
sbag0
(g340
g7
Ntp455
Rp456
(dp457
g11
S'ee**2'
p458
sg345
g346
sg13
S'ee__exp__2'
p459
sg348
(g337
tp460
sbag0
(g340
g7
Ntp461
Rp462
(dp463
g11
S'gw**2'
p464
sg345
g346
sg13
S'gw__exp__2'
p465
sg348
(g337
tp466
sbag0
(g340
g7
Ntp467
Rp468
(dp469
g11
S'cw**2'
p470
sg345
g346
sg13
S'cw__exp__2'
p471
sg348
(g337
tp472
sbag0
(g340
g7
Ntp473
Rp474
(dp475
g11
S'sw**2'
p476
sg345
g346
sg13
S'sw__exp__2'
p477
sg348
(g337
tp478
sbas(S'external'
p479
tp480
(lp481
g0
(cmadgraph.iolibs.import_ufo
ExternalParamExpr
p482
g7
Ntp483
Rp484
(dp485
S'lhablock'
p486
S'CKMBLOCK'
p487
sg13
S'cabi'
p488
sS'value'
p489
F0.22773599999999999
sS'lhacode'
p490
(lp491
I1
asbag0
(g482
g7
Ntp492
Rp493
(dp494
g486
S'SMINPUTS'
p495
sg13
S'aEWM1'
p496
sg489
F127.90000000000001
sg490
(lp497
I1
asbag0
(g482
g7
Ntp498
Rp499
(dp500
g486
g495
sg13
S'Gf'
p501
sg489
F1.16639e-05
sg490
(lp502
I2
asbag0
(g482
g7
Ntp503
Rp504
(dp505
g486
g495
sg13
S'aS'
p506
sg489
F0.11799999999999999
sg490
(lp507
I3
asbag0
(g482
g7
Ntp508
Rp509
(dp510
g486
S'YUKAWA'
p511
sg13
S'ymc'
p512
sg489
F1.4199999999999999
sg490
(lp513
I4
asbag0
(g482
g7
Ntp514
Rp515
(dp516
g486
g511
sg13
S'ymb'
p517
sg489
F4.7000000000000002
sg490
(lp518
I5
asbag0
(g482
g7
Ntp519
Rp520
(dp521
g486
g511
sg13
S'ymt'
p522
sg489
F174.30000000000001
sg490
(lp523
I6
asbag0
(g482
g7
Ntp524
Rp525
(dp526
g486
g511
sg13
S'ymtau'
p527
sg489
F1.7769999999999999
sg490
(lp528
I15
asbag0
(g482
g7
Ntp529
Rp530
(dp531
g486
S'MASS'
p532
sg13
S'MTA'
p533
sg489
F1.7769999999999999
sg490
(lp534
I15
asbag0
(g482
g7
Ntp535
Rp536
(dp537
g486
g532
sg13
S'MC'
p538
sg489
F1.4199999999999999
sg490
(lp539
I4
asbag0
(g482
g7
Ntp540
Rp541
(dp542
g486
g532
sg13
g224
sg489
F174.30000000000001
sg490
(lp543
I6
asbag0
(g482
g7
Ntp544
Rp545
(dp546
g486
g532
sg13
g167
sg489
F4.7000000000000002
sg490
(lp547
I5
asbag0
(g482
g7
Ntp548
Rp549
(dp550
g486
g532
sg13
S'MZ'
p551
sg489
F91.188000000000002
sg490
(lp552
I23
asbag0
(g482
g7
Ntp553
Rp554
(dp555
g486
g532
sg13
S'MH'
p556
sg489
I120
sg490
(lp557
I25
asbag0
(g482
g7
Ntp558
Rp559
(dp560
g486
S'DECAY'
p561
sg13
g223
sg489
F1.50833649
sg490
(lp562
I6
asbag0
(g482
g7
Ntp563
Rp564
(dp565
g486
g561
sg13
S'WZ'
p566
sg489
F2.4414035100000002
sg490
(lp567
I23
asbag0
(g482
g7
Ntp568
Rp569
(dp570
g486
g561
sg13
g93
sg489
F2.04759951
sg490
(lp571
I24
asbag0
(g482
g7
Ntp572
Rp573
(dp574
g486
g561
sg13
S'WH'
p575
sg489
F0.0057530884799999998
sg490
(lp576
I25
asbas(t(lp577
g0
(g340
g7
Ntp578
Rp579
(dp580
g11
S'0'
p581
sg345
g346
sg13
S'ye'
p582
sg348
(tsbag0
(g340
g7
Ntp583
Rp584
(dp585
g11
g581
sg345
g346
sg13
S'ym'
p586
sg348
(tsbag0
(g340
g7
Ntp587
Rp588
(dp589
g11
g581
sg345
g346
sg13
S'yu'
p590
sg348
(tsbag0
(g340
g7
Ntp591
Rp592
(dp593
g11
g581
sg345
g346
sg13
S'yd'
p594
sg348
(tsbag0
(g340
g7
Ntp595
Rp596
(dp597
g11
g581
sg345
g346
sg13
S'ys'
p598
sg348
(tsbag0
(g340
g7
Ntp599
Rp600
(dp601
g11
S' cmath.cos(cabi) '
p602
sg345
g346
sg13
S'cos__cabi'
p603
sg348
(tsbag0
(g340
g7
Ntp604
Rp605
(dp606
g11
g603
sg345
S'complex'
p607
sg13
S'CKM11'
p608
sg348
(tsbag0
(g340
g7
Ntp609
Rp610
(dp611
g11
S' cmath.sin(cabi) '
p612
sg345
g346
sg13
S'sin__cabi'
p613
sg348
(tsbag0
(g340
g7
Ntp614
Rp615
(dp616
g11
g613
sg345
g607
sg13
S'CKM12'
p617
sg348
(tsbag0
(g340
g7
Ntp618
Rp619
(dp620
g11
g581
sg345
g607
sg13
S'CKM13'
p621
sg348
(tsbag0
(g340
g7
Ntp622
Rp623
(dp624
g11
S'-sin__cabi'
p625
sg345
g607
sg13
S'CKM21'
p626
sg348
(tsbag0
(g340
g7
Ntp627
Rp628
(dp629
g11
S'cos__cabi'
p630
sg345
g607
sg13
S'CKM22'
p631
sg348
(tsbag0
(g340
g7
Ntp632
Rp633
(dp634
g11
g581
sg345
g607
sg13
S'CKM23'
p635
sg348
(tsbag0
(g340
g7
Ntp636
Rp637
(dp638
g11
g581
sg345
g607
sg13
S'CKM31'
p639
sg348
(tsbag0
(g340
g7
Ntp640
Rp641
(dp642
g11
g581
sg345
g607
sg13
S'CKM32'
p643
sg348
(tsbag0
(g340
g7
Ntp644
Rp645
(dp646
g11
g114
sg345
g607
sg13
S'CKM33'
p647
sg348
(tsbag0
(g340
g7
Ntp648
Rp649
(dp650
g11
S'MZ**2'
p651
sg345
g346
sg13
S'MZ__exp__2'
p652
sg348
(tsbag0
(g340
g7
Ntp653
Rp654
(dp655
g11
S'MZ**4'
p656
sg345
g346
sg13
S'MZ__exp__4'
p657
sg348
(tsbag0
(g340
g7
Ntp658
Rp659
(dp660
g11
S' cmath.sqrt(2) '
p661
sg345
g346
sg13
S'sqrt__2'
p662
sg348
(tsbag0
(g340
g7
Ntp663
Rp664
(dp665
g11
S'MH**2'
p666
sg345
g346
sg13
S'MH__exp__2'
p667
sg348
(tsbag0
(g340
g7
Ntp668
Rp669
(dp670
g11
S'complex(0,1)'
p671
sg345
g607
sg13
S'complexi'
p672
sg348
(tsbag0
(g340
g7
Ntp673
Rp674
(dp675
g11
S' complexconjugate(CKM11) '
p676
sg345
g607
sg13
S'conjg__CKM11'
p677
sg348
(tsbag0
(g340
g7
Ntp678
Rp679
(dp680
g11
S' complexconjugate(CKM12) '
p681
sg345
g607
sg13
S'conjg__CKM12'
p682
sg348
(tsbag0
(g340
g7
Ntp683
Rp684
(dp685
g11
S' complexconjugate(CKM13) '
p686
sg345
g607
sg13
S'conjg__CKM13'
p687
sg348
(tsbag0
(g340
g7
Ntp688
Rp689
(dp690
g11
S' complexconjugate(CKM21) '
p691
sg345
g607
sg13
S'conjg__CKM21'
p692
sg348
(tsbag0
(g340
g7
Ntp693
Rp694
(dp695
g11
S' complexconjugate(CKM22) '
p696
sg345
g607
sg13
S'conjg__CKM22'
p697
sg348
(tsbag0
(g340
g7
Ntp698
Rp699
(dp700
g11
S' complexconjugate(CKM23) '
p701
sg345
g607
sg13
S'conjg__CKM23'
p702
sg348
(tsbag0
(g340
g7
Ntp703
Rp704
(dp705
g11
S' complexconjugate(CKM31) '
p706
sg345
g607
sg13
S'conjg__CKM31'
p707
sg348
(tsbag0
(g340
g7
Ntp708
Rp709
(dp710
g11
S' complexconjugate(CKM32) '
p711
sg345
g607
sg13
S'conjg__CKM32'
p712
sg348
(tsbag0
(g340
g7
Ntp713
Rp714
(dp715
g11
S' complexconjugate(CKM33) '
p716
sg345
g607
sg13
S'conjg__CKM33'
p717
sg348
(tsbas(S'aS'
p718
tp719
(lp720
g0
(g340
g7
Ntp721
Rp722
(dp723
g11
S' cmath.sqrt(aS) '
p724
sg345
g346
sg13
S'sqrt__aS'
p725
sg348
g719
sbag0
(g340
g7
Ntp726
Rp727
(dp728
g11
S'2*sqrt__aS*cmath.sqrt(cmath.pi)'
p729
sg345
g346
sg13
S'G'
p730
sg348
(g718
tp731
sbag0
(g340
g7
Ntp732
Rp733
(dp734
g11
S'G**2'
p735
sg345
g346
sg13
S'G__exp__2'
p736
sg348
(g718
tp737
sbassg123
(dp738
(g337
tp739
(lp740
g0
(g340
g7
Ntp741
Rp742
(dp743
g11
S'-(ee*complexi)/3.'
p744
sg345
g607
sg13
g190
sg348
g739
sbag0
(g340
g7
Ntp745
Rp746
(dp747
g11
S'(2*ee*complexi)/3.'
p748
sg345
g607
sg13
g244
sg348
(g337
tp749
sbag0
(g340
g7
Ntp750
Rp751
(dp752
g11
S'-(ee*complexi)'
p753
sg345
g607
sg13
g215
sg348
(g337
tp754
sbag0
(g340
g7
Ntp755
Rp756
(dp757
g11
S'ee*complexi'
p758
sg345
g607
sg13
S'GC_4'
p759
sg348
(g337
tp760
sbag0
(g340
g7
Ntp761
Rp762
(dp763
g11
S'2*ee__exp__2*complexi'
p764
sg345
g607
sg13
S'GC_5'
p765
sg348
(g337
tp766
sbag0
(g340
g7
Ntp767
Rp768
(dp769
g11
S'-ee__exp__2/(2.*cw)'
p770
sg345
g607
sg13
S'GC_6'
p771
sg348
(g337
tp772
sbag0
(g340
g7
Ntp773
Rp774
(dp775
g11
S'(ee__exp__2*complexi)/(2.*cw)'
p776
sg345
g607
sg13
S'GC_7'
p777
sg348
(g337
tp778
sbag0
(g340
g7
Ntp779
Rp780
(dp781
g11
S'ee__exp__2/(2.*cw)'
p782
sg345
g607
sg13
S'GC_8'
p783
sg348
(g337
tp784
sbag0
(g340
g7
Ntp785
Rp786
(dp787
g11
S'cw*complexi*gw'
p788
sg345
g607
sg13
S'GC_12'
p789
sg348
(g337
tp790
sbag0
(g340
g7
Ntp791
Rp792
(dp793
g11
S'-(complexi*gw__exp__2)'
p794
sg345
g607
sg13
g159
sg348
(g337
tp795
sbag0
(g340
g7
Ntp796
Rp797
(dp798
g11
S'cw__exp__2*complexi*gw__exp__2'
p799
sg345
g607
sg13
S'GC_14'
p800
sg348
(g337
tp801
sbag0
(g340
g7
Ntp802
Rp803
(dp804
g11
S'-2*complexi*lam'
p805
sg345
g607
sg13
S'GC_15'
p806
sg348
(g337
tp807
sbag0
(g340
g7
Ntp808
Rp809
(dp810
g11
S'-4*complexi*lam'
p811
sg345
g607
sg13
S'GC_16'
p812
sg348
(g337
tp813
sbag0
(g340
g7
Ntp814
Rp815
(dp816
g11
S'-6*complexi*lam'
p817
sg345
g607
sg13
S'GC_17'
p818
sg348
(g337
tp819
sbag0
(g340
g7
Ntp820
Rp821
(dp822
g11
S'-(ee*MW)'
p823
sg345
g607
sg13
S'GC_18'
p824
sg348
(g337
tp825
sbag0
(g340
g7
Ntp826
Rp827
(dp828
g11
S'ee*MW'
p829
sg345
g607
sg13
S'GC_19'
p830
sg348
(g337
tp831
sbag0
(g340
g7
Ntp832
Rp833
(dp834
g11
S'(ee__exp__2*complexi)/(2.*sw__exp__2)'
p835
sg345
g607
sg13
S'GC_20'
p836
sg348
(g337
tp837
sbag0
(g340
g7
Ntp838
Rp839
(dp840
g11
S'-(ee*complexi)/(2.*sw)'
p841
sg345
g607
sg13
S'GC_21'
p842
sg348
(g337
tp843
sbag0
(g340
g7
Ntp844
Rp845
(dp846
g11
S'(ee*complexi)/(2.*sw)'
p847
sg345
g607
sg13
S'GC_22'
p848
sg348
(g337
tp849
sbag0
(g340
g7
Ntp850
Rp851
(dp852
g11
S'ee/(2.*sw)'
p853
sg345
g607
sg13
S'GC_23'
p854
sg348
(g337
tp855
sbag0
(g340
g7
Ntp856
Rp857
(dp858
g11
S'(ee*complexi)/(sw*sqrt__2)'
p859
sg345
g607
sg13
g303
sg348
(g337
tp860
sbag0
(g340
g7
Ntp861
Rp862
(dp863
g11
S'(CKM11*ee*complexi)/(sw*sqrt__2)'
p864
sg345
g607
sg13
S'GC_25'
p865
sg348
(g337
tp866
sbag0
(g340
g7
Ntp867
Rp868
(dp869
g11
S'(CKM12*ee*complexi)/(sw*sqrt__2)'
p870
sg345
g607
sg13
S'GC_26'
p871
sg348
(g337
tp872
sbag0
(g340
g7
Ntp873
Rp874
(dp875
g11
S'(CKM13*ee*complexi)/(sw*sqrt__2)'
p876
sg345
g607
sg13
S'GC_27'
p877
sg348
(g337
tp878
sbag0
(g340
g7
Ntp879
Rp880
(dp881
g11
S'(CKM21*ee*complexi)/(sw*sqrt__2)'
p882
sg345
g607
sg13
S'GC_28'
p883
sg348
(g337
tp884
sbag0
(g340
g7
Ntp885
Rp886
(dp887
g11
S'(CKM22*ee*complexi)/(sw*sqrt__2)'
p888
sg345
g607
sg13
S'GC_29'
p889
sg348
(g337
tp890
sbag0
(g340
g7
Ntp891
Rp892
(dp893
g11
S'(CKM23*ee*complexi)/(sw*sqrt__2)'
p894
sg345
g607
sg13
S'GC_30'
p895
sg348
(g337
tp896
sbag0
(g340
g7
Ntp897
Rp898
(dp899
g11
S'(CKM31*ee*complexi)/(sw*sqrt__2)'
p900
sg345
g607
sg13
S'GC_31'
p901
sg348
(g337
tp902
sbag0
(g340
g7
Ntp903
Rp904
(dp905
g11
S'(CKM32*ee*complexi)/(sw*sqrt__2)'
p906
sg345
g607
sg13
S'GC_32'
p907
sg348
(g337
tp908
sbag0
(g340
g7
Ntp909
Rp910
(dp911
g11
S'(CKM33*ee*complexi)/(sw*sqrt__2)'
p912
sg345
g607
sg13
g263
sg348
(g337
tp913
sbag0
(g340
g7
Ntp914
Rp915
(dp916
g11
S'-(cw*ee*complexi)/(2.*sw)'
p917
sg345
g607
sg13
S'GC_34'
p918
sg348
(g337
tp919
sbag0
(g340
g7
Ntp920
Rp921
(dp922
g11
S'(cw*ee*complexi)/(2.*sw)'
p923
sg345
g607
sg13
S'GC_35'
p924
sg348
(g337
tp925
sbag0
(g340
g7
Ntp926
Rp927
(dp928
g11
S'-((cw*ee*complexi)/sw)'
p929
sg345
g607
sg13
S'GC_36'
p930
sg348
(g337
tp931
sbag0
(g340
g7
Ntp932
Rp933
(dp934
g11
S'(cw*ee*complexi)/sw'
p935
sg345
g607
sg13
S'GC_37'
p936
sg348
(g337
tp937
sbag0
(g340
g7
Ntp938
Rp939
(dp940
g11
S'-ee__exp__2/(2.*sw)'
p941
sg345
g607
sg13
S'GC_38'
p942
sg348
(g337
tp943
sbag0
(g340
g7
Ntp944
Rp945
(dp946
g11
S'-(ee__exp__2*complexi)/(2.*sw)'
p947
sg345
g607
sg13
S'GC_39'
p948
sg348
(g337
tp949
sbag0
(g340
g7
Ntp950
Rp951
(dp952
g11
S'ee__exp__2/(2.*sw)'
p953
sg345
g607
sg13
S'GC_40'
p954
sg348
(g337
tp955
sbag0
(g340
g7
Ntp956
Rp957
(dp958
g11
S'-(ee*MW)/(2.*sw)'
p959
sg345
g607
sg13
S'GC_41'
p960
sg348
(g337
tp961
sbag0
(g340
g7
Ntp962
Rp963
(dp964
g11
S'-(ee*complexi*MW)/(2.*sw)'
p965
sg345
g607
sg13
S'GC_42'
p966
sg348
(g337
tp967
sbag0
(g340
g7
Ntp968
Rp969
(dp970
g11
S'(ee*MW)/(2.*sw)'
p971
sg345
g607
sg13
S'GC_43'
p972
sg348
(g337
tp973
sbag0
(g340
g7
Ntp974
Rp975
(dp976
g11
S'-(ee*MZ)/(2.*sw)'
p977
sg345
g607
sg13
S'GC_44'
p978
sg348
(g337
tp979
sbag0
(g340
g7
Ntp980
Rp981
(dp982
g11
S'(ee*MZ)/(2.*sw)'
p983
sg345
g607
sg13
S'GC_45'
p984
sg348
(g337
tp985
sbag0
(g340
g7
Ntp986
Rp987
(dp988
g11
S'-(ee*complexi*MZ)/(2.*cw*sw)'
p989
sg345
g607
sg13
S'GC_46'
p990
sg348
(g337
tp991
sbag0
(g340
g7
Ntp992
Rp993
(dp994
g11
S'-(ee*complexi*sw)/(6.*cw)'
p995
sg345
g607
sg13
S'GC_47'
p996
sg348
(g337
tp997
sbag0
(g340
g7
Ntp998
Rp999
(dp1000
g11
S'(ee*complexi*sw)/(2.*cw)'
p1001
sg345
g607
sg13
S'GC_48'
p1002
sg348
(g337
tp1003
sbag0
(g340
g7
Ntp1004
Rp1005
(dp1006
g11
S'complexi*gw*sw'
p1007
sg345
g607
sg13
g126
sg348
(g337
tp1008
sbag0
(g340
g7
Ntp1009
Rp1010
(dp1011
g11
S'-2*cw*complexi*gw__exp__2*sw'
p1012
sg345
g607
sg13
S'GC_50'
p1013
sg348
(g337
tp1014
sbag0
(g340
g7
Ntp1015
Rp1016
(dp1017
g11
S'complexi*gw__exp__2*sw__exp__2'
p1018
sg345
g607
sg13
g143
sg348
(g337
tp1019
sbag0
(g340
g7
Ntp1020
Rp1021
(dp1022
g11
S'-(cw*ee*complexi)/(2.*sw) + (ee*complexi*sw)/(2.*cw)'
p1023
sg345
g607
sg13
S'GC_52'
p1024
sg348
(g337
tp1025
sbag0
(g340
g7
Ntp1026
Rp1027
(dp1028
g11
S'(cw*ee*complexi)/(2.*sw) + (ee*complexi*sw)/(2.*cw)'
p1029
sg345
g607
sg13
S'GC_53'
p1030
sg348
(g337
tp1031
sbag0
(g340
g7
Ntp1032
Rp1033
(dp1034
g11
S'(cw*ee)/(2.*sw) + (ee*sw)/(2.*cw)'
p1035
sg345
g607
sg13
S'GC_54'
p1036
sg348
(g337
tp1037
sbag0
(g340
g7
Ntp1038
Rp1039
(dp1040
g11
S'(cw*ee__exp__2*complexi)/sw - (ee__exp__2*complexi*sw)/cw'
p1041
sg345
g607
sg13
S'GC_55'
p1042
sg348
(g337
tp1043
sbag0
(g340
g7
Ntp1044
Rp1045
(dp1046
g11
S'(cw*ee*MW)/(2.*sw) - (ee*MW*sw)/(2.*cw)'
p1047
sg345
g607
sg13
S'GC_56'
p1048
sg348
(g337
tp1049
sbag0
(g340
g7
Ntp1050
Rp1051
(dp1052
g11
S'-(cw*ee*MW)/(2.*sw) + (ee*MW*sw)/(2.*cw)'
p1053
sg345
g607
sg13
S'GC_57'
p1054
sg348
(g337
tp1055
sbag0
(g340
g7
Ntp1056
Rp1057
(dp1058
g11
S'-(ee__exp__2*complexi) + (cw__exp__2*ee__exp__2*complexi)/(2.*sw__exp__2) + (ee__exp__2*complexi*sw__exp__2)/(2.*cw__exp__2)'
p1059
sg345
g607
sg13
S'GC_58'
p1060
sg348
(g337
tp1061
sbag0
(g340
g7
Ntp1062
Rp1063
(dp1064
g11
S'ee__exp__2*complexi + (cw__exp__2*ee__exp__2*complexi)/(2.*sw__exp__2) + (ee__exp__2*complexi*sw__exp__2)/(2.*cw__exp__2)'
p1065
sg345
g607
sg13
S'GC_59'
p1066
sg348
(g337
tp1067
sbag0
(g340
g7
Ntp1068
Rp1069
(dp1070
g11
S'-(ee__exp__2*v)/(2.*cw)'
p1071
sg345
g607
sg13
S'GC_60'
p1072
sg348
(g337
tp1073
sbag0
(g340
g7
Ntp1074
Rp1075
(dp1076
g11
S'(ee__exp__2*v)/(2.*cw)'
p1077
sg345
g607
sg13
S'GC_61'
p1078
sg348
(g337
tp1079
sbag0
(g340
g7
Ntp1080
Rp1081
(dp1082
g11
S'-2*complexi*lam*v'
p1083
sg345
g607
sg13
S'GC_62'
p1084
sg348
(g337
tp1085
sbag0
(g340
g7
Ntp1086
Rp1087
(dp1088
g11
S'-6*complexi*lam*v'
p1089
sg345
g607
sg13
S'GC_63'
p1090
sg348
(g337
tp1091
sbag0
(g340
g7
Ntp1092
Rp1093
(dp1094
g11
S'(ee__exp__2*complexi*v)/(2.*sw__exp__2)'
p1095
sg345
g607
sg13
S'GC_64'
p1096
sg348
(g337
tp1097
sbag0
(g340
g7
Ntp1098
Rp1099
(dp1100
g11
S'-(ee__exp__2*v)/(2.*sw)'
p1101
sg345
g607
sg13
S'GC_65'
p1102
sg348
(g337
tp1103
sbag0
(g340
g7
Ntp1104
Rp1105
(dp1106
g11
S'(ee__exp__2*v)/(2.*sw)'
p1107
sg345
g607
sg13
S'GC_66'
p1108
sg348
(g337
tp1109
sbag0
(g340
g7
Ntp1110
Rp1111
(dp1112
g11
S'ee__exp__2*complexi*v + (cw__exp__2*ee__exp__2*complexi*v)/(2.*sw__exp__2) + (ee__exp__2*complexi*sw__exp__2*v)/(2.*cw__exp__2)'
p1113
sg345
g607
sg13
S'GC_67'
p1114
sg348
(g337
tp1115
sbag0
(g340
g7
Ntp1116
Rp1117
(dp1118
g11
S'-((complexi*yb)/sqrt__2)'
p1119
sg345
g607
sg13
S'GC_68'
p1120
sg348
(g337
tp1121
sbag0
(g340
g7
Ntp1122
Rp1123
(dp1124
g11
S'yb/sqrt__2'
p1125
sg345
g607
sg13
S'GC_69'
p1126
sg348
(g337
tp1127
sbag0
(g340
g7
Ntp1128
Rp1129
(dp1130
g11
S'-(CKM13*yb)'
p1131
sg345
g607
sg13
S'GC_70'
p1132
sg348
(g337
tp1133
sbag0
(g340
g7
Ntp1134
Rp1135
(dp1136
g11
S'-(CKM23*yb)'
p1137
sg345
g607
sg13
S'GC_71'
p1138
sg348
(g337
tp1139
sbag0
(g340
g7
Ntp1140
Rp1141
(dp1142
g11
S'-(CKM33*yb)'
p1143
sg345
g607
sg13
S'GC_72'
p1144
sg348
(g337
tp1145
sbag0
(g340
g7
Ntp1146
Rp1147
(dp1148
g11
S'-(yc/sqrt__2)'
p1149
sg345
g607
sg13
S'GC_73'
p1150
sg348
(g337
tp1151
sbag0
(g340
g7
Ntp1152
Rp1153
(dp1154
g11
S'-((complexi*yc)/sqrt__2)'
p1155
sg345
g607
sg13
S'GC_74'
p1156
sg348
(g337
tp1157
sbag0
(g340
g7
Ntp1158
Rp1159
(dp1160
g11
S'CKM21*yc'
p1161
sg345
g607
sg13
S'GC_75'
p1162
sg348
(g337
tp1163
sbag0
(g340
g7
Ntp1164
Rp1165
(dp1166
g11
S'CKM22*yc'
p1167
sg345
g607
sg13
S'GC_76'
p1168
sg348
(g337
tp1169
sbag0
(g340
g7
Ntp1170
Rp1171
(dp1172
g11
S'CKM23*yc'
p1173
sg345
g607
sg13
S'GC_77'
p1174
sg348
(g337
tp1175
sbag0
(g340
g7
Ntp1176
Rp1177
(dp1178
g11
S'-(yt/sqrt__2)'
p1179
sg345
g607
sg13
S'GC_96'
p1180
sg348
(g337
tp1181
sbag0
(g340
g7
Ntp1182
Rp1183
(dp1184
g11
S'-((complexi*yt)/sqrt__2)'
p1185
sg345
g607
sg13
S'GC_97'
p1186
sg348
(g337
tp1187
sbag0
(g340
g7
Ntp1188
Rp1189
(dp1190
g11
S'CKM31*yt'
p1191
sg345
g607
sg13
S'GC_98'
p1192
sg348
(g337
tp1193
sbag0
(g340
g7
Ntp1194
Rp1195
(dp1196
g11
S'CKM32*yt'
p1197
sg345
g607
sg13
S'GC_99'
p1198
sg348
(g337
tp1199
sbag0
(g340
g7
Ntp1200
Rp1201
(dp1202
g11
S'CKM33*yt'
p1203
sg345
g607
sg13
S'GC_100'
p1204
sg348
(g337
tp1205
sbag0
(g340
g7
Ntp1206
Rp1207
(dp1208
g11
S'-ytau'
p1209
sg345
g607
sg13
S'GC_101'
p1210
sg348
(g337
tp1211
sbag0
(g340
g7
Ntp1212
Rp1213
(dp1214
g11
g447
sg345
g607
sg13
S'GC_102'
p1215
sg348
(g337
tp1216
sbag0
(g340
g7
Ntp1217
Rp1218
(dp1219
g11
S'-((complexi*ytau)/sqrt__2)'
p1220
sg345
g607
sg13
S'GC_103'
p1221
sg348
(g337
tp1222
sbag0
(g340
g7
Ntp1223
Rp1224
(dp1225
g11
S'ytau/sqrt__2'
p1226
sg345
g607
sg13
S'GC_104'
p1227
sg348
(g337
tp1228
sbag0
(g340
g7
Ntp1229
Rp1230
(dp1231
g11
S'(ee*complexi*conjg__CKM11)/(sw*sqrt__2)'
p1232
sg345
g607
sg13
S'GC_110'
p1233
sg348
(g337
tp1234
sbag0
(g340
g7
Ntp1235
Rp1236
(dp1237
g11
S'(ee*complexi*conjg__CKM12)/(sw*sqrt__2)'
p1238
sg345
g607
sg13
S'GC_113'
p1239
sg348
(g337
tp1240
sbag0
(g340
g7
Ntp1241
Rp1242
(dp1243
g11
S'(ee*complexi*conjg__CKM13)/(sw*sqrt__2)'
p1244
sg345
g607
sg13
S'GC_116'
p1245
sg348
(g337
tp1246
sbag0
(g340
g7
Ntp1247
Rp1248
(dp1249
g11
S'yb*conjg__CKM13'
p1250
sg345
g607
sg13
S'GC_117'
p1251
sg348
(g337
tp1252
sbag0
(g340
g7
Ntp1253
Rp1254
(dp1255
g11
S'(ee*complexi*conjg__CKM21)/(sw*sqrt__2)'
p1256
sg345
g607
sg13
S'GC_119'
p1257
sg348
(g337
tp1258
sbag0
(g340
g7
Ntp1259
Rp1260
(dp1261
g11
S'-(yc*conjg__CKM21)'
p1262
sg345
g607
sg13
S'GC_120'
p1263
sg348
(g337
tp1264
sbag0
(g340
g7
Ntp1265
Rp1266
(dp1267
g11
S'(ee*complexi*conjg__CKM22)/(sw*sqrt__2)'
p1268
sg345
g607
sg13
S'GC_122'
p1269
sg348
(g337
tp1270
sbag0
(g340
g7
Ntp1271
Rp1272
(dp1273
g11
S'-(yc*conjg__CKM22)'
p1274
sg345
g607
sg13
S'GC_123'
p1275
sg348
(g337
tp1276
sbag0
(g340
g7
Ntp1277
Rp1278
(dp1279
g11
S'(ee*complexi*conjg__CKM23)/(sw*sqrt__2)'
p1280
sg345
g607
sg13
S'GC_125'
p1281
sg348
(g337
tp1282
sbag0
(g340
g7
Ntp1283
Rp1284
(dp1285
g11
S'yb*conjg__CKM23'
p1286
sg345
g607
sg13
S'GC_126'
p1287
sg348
(g337
tp1288
sbag0
(g340
g7
Ntp1289
Rp1290
(dp1291
g11
S'-(yc*conjg__CKM23)'
p1292
sg345
g607
sg13
S'GC_127'
p1293
sg348
(g337
tp1294
sbag0
(g340
g7
Ntp1295
Rp1296
(dp1297
g11
S'(ee*complexi*conjg__CKM31)/(sw*sqrt__2)'
p1298
sg345
g607
sg13
S'GC_128'
p1299
sg348
(g337
tp1300
sbag0
(g340
g7
Ntp1301
Rp1302
(dp1303
g11
S'-(yt*conjg__CKM31)'
p1304
sg345
g607
sg13
S'GC_130'
p1305
sg348
(g337
tp1306
sbag0
(g340
g7
Ntp1307
Rp1308
(dp1309
g11
S'(ee*complexi*conjg__CKM32)/(sw*sqrt__2)'
p1310
sg345
g607
sg13
S'GC_131'
p1311
sg348
(g337
tp1312
sbag0
(g340
g7
Ntp1313
Rp1314
(dp1315
g11
S'-(yt*conjg__CKM32)'
p1316
sg345
g607
sg13
S'GC_133'
p1317
sg348
(g337
tp1318
sbag0
(g340
g7
Ntp1319
Rp1320
(dp1321
g11
S'(ee*complexi*conjg__CKM33)/(sw*sqrt__2)'
p1322
sg345
g607
sg13
g281
sg348
(g337
tp1323
sbag0
(g340
g7
Ntp1324
Rp1325
(dp1326
g11
S'yb*conjg__CKM33'
p1327
sg345
g607
sg13
S'GC_135'
p1328
sg348
(g337
tp1329
sbag0
(g340
g7
Ntp1330
Rp1331
(dp1332
g11
S'-(yt*conjg__CKM33)'
p1333
sg345
g607
sg13
S'GC_136'
p1334
sg348
(g337
tp1335
sbas(t(lp1336
g0
(g340
g7
Ntp1337
Rp1338
(dp1339
g11
S'-((complexi*yd)/sqrt__2)'
p1340
sg345
g607
sg13
S'GC_78'
p1341
sg348
(tsbag0
(g340
g7
Ntp1342
Rp1343
(dp1344
g11
S'yd/sqrt__2'
p1345
sg345
g607
sg13
S'GC_79'
p1346
sg348
(tsbag0
(g340
g7
Ntp1347
Rp1348
(dp1349
g11
S'-(CKM11*yd)'
p1350
sg345
g607
sg13
S'GC_80'
p1351
sg348
(tsbag0
(g340
g7
Ntp1352
Rp1353
(dp1354
g11
S'-(CKM21*yd)'
p1355
sg345
g607
sg13
S'GC_81'
p1356
sg348
(tsbag0
(g340
g7
Ntp1357
Rp1358
(dp1359
g11
S'-(CKM31*yd)'
p1360
sg345
g607
sg13
S'GC_82'
p1361
sg348
(tsbag0
(g340
g7
Ntp1362
Rp1363
(dp1364
g11
S'-ye'
p1365
sg345
g607
sg13
S'GC_83'
p1366
sg348
(tsbag0
(g340
g7
Ntp1367
Rp1368
(dp1369
g11
g582
sg345
g607
sg13
S'GC_84'
p1370
sg348
(tsbag0
(g340
g7
Ntp1371
Rp1372
(dp1373
g11
S'-((complexi*ye)/sqrt__2)'
p1374
sg345
g607
sg13
S'GC_85'
p1375
sg348
(tsbag0
(g340
g7
Ntp1376
Rp1377
(dp1378
g11
S'ye/sqrt__2'
p1379
sg345
g607
sg13
S'GC_86'
p1380
sg348
(tsbag0
(g340
g7
Ntp1381
Rp1382
(dp1383
g11
S'-ym'
p1384
sg345
g607
sg13
S'GC_87'
p1385
sg348
(tsbag0
(g340
g7
Ntp1386
Rp1387
(dp1388
g11
g586
sg345
g607
sg13
S'GC_88'
p1389
sg348
(tsbag0
(g340
g7
Ntp1390
Rp1391
(dp1392
g11
S'-((complexi*ym)/sqrt__2)'
p1393
sg345
g607
sg13
S'GC_89'
p1394
sg348
(tsbag0
(g340
g7
Ntp1395
Rp1396
(dp1397
g11
S'ym/sqrt__2'
p1398
sg345
g607
sg13
S'GC_90'
p1399
sg348
(tsbag0
(g340
g7
Ntp1400
Rp1401
(dp1402
g11
S'-((complexi*ys)/sqrt__2)'
p1403
sg345
g607
sg13
S'GC_91'
p1404
sg348
(tsbag0
(g340
g7
Ntp1405
Rp1406
(dp1407
g11
S'ys/sqrt__2'
p1408
sg345
g607
sg13
S'GC_92'
p1409
sg348
(tsbag0
(g340
g7
Ntp1410
Rp1411
(dp1412
g11
S'-(CKM12*ys)'
p1413
sg345
g607
sg13
S'GC_93'
p1414
sg348
(tsbag0
(g340
g7
Ntp1415
Rp1416
(dp1417
g11
S'-(CKM22*ys)'
p1418
sg345
g607
sg13
S'GC_94'
p1419
sg348
(tsbag0
(g340
g7
Ntp1420
Rp1421
(dp1422
g11
S'-(CKM32*ys)'
p1423
sg345
g607
sg13
S'GC_95'
p1424
sg348
(tsbag0
(g340
g7
Ntp1425
Rp1426
(dp1427
g11
S'-(yu/sqrt__2)'
p1428
sg345
g607
sg13
S'GC_105'
p1429
sg348
(tsbag0
(g340
g7
Ntp1430
Rp1431
(dp1432
g11
S'-((complexi*yu)/sqrt__2)'
p1433
sg345
g607
sg13
S'GC_106'
p1434
sg348
(tsbag0
(g340
g7
Ntp1435
Rp1436
(dp1437
g11
S'CKM11*yu'
p1438
sg345
g607
sg13
S'GC_107'
p1439
sg348
(tsbag0
(g340
g7
Ntp1440
Rp1441
(dp1442
g11
S'CKM12*yu'
p1443
sg345
g607
sg13
S'GC_108'
p1444
sg348
(tsbag0
(g340
g7
Ntp1445
Rp1446
(dp1447
g11
S'CKM13*yu'
p1448
sg345
g607
sg13
S'GC_109'
p1449
sg348
(tsbag0
(g340
g7
Ntp1450
Rp1451
(dp1452
g11
S'yd*conjg__CKM11'
p1453
sg345
g607
sg13
S'GC_111'
p1454
sg348
(tsbag0
(g340
g7
Ntp1455
Rp1456
(dp1457
g11
S'-(yu*conjg__CKM11)'
p1458
sg345
g607
sg13
S'GC_112'
p1459
sg348
(tsbag0
(g340
g7
Ntp1460
Rp1461
(dp1462
g11
S'ys*conjg__CKM12'
p1463
sg345
g607
sg13
S'GC_114'
p1464
sg348
(tsbag0
(g340
g7
Ntp1465
Rp1466
(dp1467
g11
S'-(yu*conjg__CKM12)'
p1468
sg345
g607
sg13
S'GC_115'
p1469
sg348
(tsbag0
(g340
g7
Ntp1470
Rp1471
(dp1472
g11
S'-(yu*conjg__CKM13)'
p1473
sg345
g607
sg13
S'GC_118'
p1474
sg348
(tsbag0
(g340
g7
Ntp1475
Rp1476
(dp1477
g11
S'yd*conjg__CKM21'
p1478
sg345
g607
sg13
S'GC_121'
p1479
sg348
(tsbag0
(g340
g7
Ntp1480
Rp1481
(dp1482
g11
S'ys*conjg__CKM22'
p1483
sg345
g607
sg13
S'GC_124'
p1484
sg348
(tsbag0
(g340
g7
Ntp1485
Rp1486
(dp1487
g11
S'yd*conjg__CKM31'
p1488
sg345
g607
sg13
S'GC_129'
p1489
sg348
(tsbag0
(g340
g7
Ntp1490
Rp1491
(dp1492
g11
S'ys*conjg__CKM32'
p1493
sg345
g607
sg13
S'GC_132'
p1494
sg348
(tsbas(g718
tp1495
(lp1496
g0
(g340
g7
Ntp1497
Rp1498
(dp1499
g11
S'-G'
p1500
sg345
g607
sg13
S'GC_9'
p1501
sg348
g1495
sbag0
(g340
g7
Ntp1502
Rp1503
(dp1504
g11
S'complexi*G'
p1505
sg345
g607
sg13
S'GC_10'
p1506
sg348
(g718
tp1507
sbag0
(g340
g7
Ntp1508
Rp1509
(dp1510
g11
S'complexi*G__exp__2'
p1511
sg345
g607
sg13
S'GC_11'
p1512
sg348
(g718
tp1513
sbasstp1514
Rp1515
.