ccopy_reg
_reconstructor
p0
(cmadgraph.core.base_objects
Model
p1
c__builtin__
dict
p2
(dp3
S'functions'
p4
(lp5
g0
(cmodels.sextets.object_library
Function
p6
c__builtin__
object
p7
Ntp8
Rp9
(dp10
S'expr'
p11
S'z.conjugate()'
p12
sS'name'
p13
S'complexconjugate'
p14
sS'arguments'
p15
(S'z'
p16
tp17
sbag0
(g6
g7
Ntp18
Rp19
(dp20
g11
S'z.real'
p21
sg13
S're'
p22
sg15
(g16
tp23
sbag0
(g6
g7
Ntp24
Rp25
(dp26
g11
S'z.imag'
p27
sg13
S'im'
p28
sg15
(g16
tp29
sbag0
(g6
g7
Ntp30
Rp31
(dp32
g11
S'1./cmath.cos(z)'
p33
sg13
S'sec'
p34
sg15
(g16
tp35
sbag0
(g6
g7
Ntp36
Rp37
(dp38
g11
S'cmath.acos(1./z)'
p39
sg13
S'asec'
p40
sg15
(g16
tp41
sbag0
(g6
g7
Ntp42
Rp43
(dp44
g11
S'1./cmath.sin(z)'
p45
sg13
S'csc'
p46
sg15
(g16
tp47
sbag0
(g6
g7
Ntp48
Rp49
(dp50
g11
S'cmath.asin(1./z)'
p51
sg13
S'acsc'
p52
sg15
(g16
tp53
sbasS'interaction_dict'
p54
(dp55
sg13
S'sextets'
p56
sS'ref_dict_to0'
p57
(dp58
sS'interactions'
p59
g0
(cmadgraph.core.base_objects
InteractionList
p60
c__builtin__
list
p61
(lp62
g0
(cmadgraph.core.base_objects
Interaction
p63
g2
(dp64
S'particles'
p65
g0
(cmadgraph.core.base_objects
ParticleList
p66
g61
(lp67
g0
(cmadgraph.core.base_objects
Particle
p68
g2
(dp69
S'texname'
p70
S'\\phi'
p71
sS'propagating'
p72
I01
sg13
S'h'
p73
sS'self_antipart'
p74
I01
sS'color'
p75
I1
sS'width'
p76
S'WH'
p77
sS'charge'
p78
F0.0
sS'mass'
p79
S'MH'
p80
sS'antiname'
p81
S'h'
p82
sS'line'
p83
S'dashed'
p84
sS'is_part'
p85
I01
sS'spin'
p86
I1
sS'antitexname'
p87
g71
sS'pdg_code'
p88
I25
stp89
Rp90
ag90
ag90
atp91
Rp92
sS'lorentz'
p93
(lp94
S'SSS1'
p95
asg75
(lp96
g0
(cmadgraph.core.color_algebra
ColorString
p97
g61
(lp98
tp99
Rp100
(dp101
S'coeff'
p102
cfractions
Fraction
p103
(S'1'
p104
tp105
Rp106
sS'is_imaginary'
p107
I00
sS'Nc_power'
p108
I0
sbasS'id'
p109
I1
sS'orders'
p110
(dp111
S'QED'
p112
I1
ssS'couplings'
p113
(dp114
(I0
I0
tp115
S'GC_21'
p116
sstp117
Rp118
ag0
(g63
g2
(dp119
g65
g0
(g66
g61
(lp120
g0
(g68
g2
(dp121
g70
S'G'
p122
sg72
I01
sg13
S'g'
p123
sg74
I01
sg75
I8
sg76
S'ZERO'
p124
sg78
F0.0
sg79
g124
sg81
S'g'
p125
sg83
S'curly'
p126
sg85
I01
sg86
I3
sg87
g122
sg88
I21
stp127
Rp128
ag128
ag128
atp129
Rp130
sg93
(lp131
S'VVV1'
p132
asg75
(lp133
g0
(g97
g61
(lp134
cmadgraph.core.color_algebra
f
p135
(I0
I1
I2
tp136
Rp137
atp138
Rp139
(dp140
g102
g106
sg107
I00
sg108
I0
sbasg109
I2
sg110
(dp141
S'QCD'
p142
I1
ssg113
(dp143
(I0
I0
tp144
S'GC_4'
p145
sstp146
Rp147
ag0
(g63
g2
(dp148
g65
g0
(g66
g61
(lp149
g128
ag128
ag128
ag128
atp150
Rp151
sg93
(lp152
S'VVVV1'
p153
aS'VVVV3'
p154
aS'VVVV4'
p155
asg75
(lp156
g0
(g97
g61
(lp157
g135
(I1
I2
I-1
tp158
Rp159
ag135
(I-1
I0
I3
tp160
Rp161
atp162
Rp163
(dp164
g102
g106
sg107
I00
sg108
I0
sbag0
(g97
g61
(lp165
g135
(I1
I3
I-1
tp166
Rp167
ag135
(I-1
I0
I2
tp168
Rp169
atp170
Rp171
(dp172
g102
g106
sg107
I00
sg108
I0
sbag0
(g97
g61
(lp173
g135
(I2
I3
I-1
tp174
Rp175
ag135
(I-1
I0
I1
tp176
Rp177
atp178
Rp179
(dp180
g102
g106
sg107
I00
sg108
I0
sbasg109
I3
sg110
(dp181
g142
I2
ssg113
(dp182
(I2
I0
tp183
S'GC_6'
p184
s(I1
I1
tp185
g184
s(I0
I2
tp186
g184
sstp187
Rp188
ag0
(g63
g2
(dp189
g65
g0
(g66
g61
(lp190
g0
(g68
g2
(dp191
g70
S'A'
p192
sg72
I01
sg13
S'a'
p193
sg74
I01
sg75
I1
sg76
g124
sg78
F0.0
sg79
g124
sg81
S'a'
p194
sg83
S'wavy'
p195
sg85
I01
sg86
I3
sg87
g192
sg88
I22
stp196
Rp197
ag0
(g68
g2
(dp198
g70
S'W+'
p199
sg85
I00
sg13
S'w+'
p200
sg74
I00
sg75
I1
sg76
S'WW'
p201
sg78
F1.0
sg79
S'MW'
p202
sg81
S'w-'
p203
sg83
g195
sg72
I01
sg86
I3
sg87
g199
sg88
I24
stp204
Rp205
ag0
(g68
g2
(dp206
g70
g199
sg72
I01
sg13
g200
sg74
I00
sg75
I1
sg76
g201
sg78
F1.0
sg79
g202
sg81
g203
sg83
g195
sg85
I01
sg86
I3
sg87
g199
sg88
I24
stp207
Rp208
atp209
Rp210
sg93
(lp211
g132
asg75
(lp212
g0
(g97
g61
(lp213
tp214
Rp215
(dp216
g102
g106
sg107
I00
sg108
I0
sbasg109
I4
sg110
(dp217
g112
I1
ssg113
(dp218
(I0
I0
tp219
S'GC_16'
p220
sstp221
Rp222
ag0
(g63
g2
(dp223
g65
g0
(g66
g61
(lp224
g205
ag208
ag90
ag90
atp225
Rp226
sg93
(lp227
S'VVSS1'
p228
asg75
(lp229
g0
(g97
g61
(lp230
tp231
Rp232
(dp233
g102
g106
sg107
I00
sg108
I0
sbasg109
I5
sg110
(dp234
g112
I2
ssg113
(dp235
(I0
I0
tp236
S'GC_10'
p237
sstp238
Rp239
ag0
(g63
g2
(dp240
g65
g0
(g66
g61
(lp241
g205
ag208
ag90
atp242
Rp243
sg93
(lp244
S'VVS1'
p245
asg75
(lp246
g0
(g97
g61
(lp247
tp248
Rp249
(dp250
g102
g106
sg107
I00
sg108
I0
sbasg109
I6
sg110
(dp251
g112
I1
ssg113
(dp252
(I0
I0
tp253
S'GC_22'
p254
sstp255
Rp256
ag0
(g63
g2
(dp257
g65
g0
(g66
g61
(lp258
g197
ag197
ag205
ag208
atp259
Rp260
sg93
(lp261
S'VVVV2'
p262
asg75
(lp263
g0
(g97
g61
(lp264
tp265
Rp266
(dp267
g102
g106
sg107
I00
sg108
I0
sbasg109
I7
sg110
(dp268
g112
I2
ssg113
(dp269
(I0
I0
tp270
S'GC_18'
p271
sstp272
Rp273
ag0
(g63
g2
(dp274
g65
g0
(g66
g61
(lp275
g205
ag208
ag0
(g68
g2
(dp276
g70
S'Z'
p277
sg72
I01
sg13
S'z'
p278
sg74
I01
sg75
I1
sg76
S'WZ'
p279
sg78
F0.0
sg79
S'MZ'
p280
sg81
S'z'
p281
sg83
g195
sg85
I01
sg86
I3
sg87
g277
sg88
I23
stp282
Rp283
atp284
Rp285
sg93
(lp286
g132
asg75
(lp287
g0
(g97
g61
(lp288
tp289
Rp290
(dp291
g102
g106
sg107
I00
sg108
I0
sbasg109
I8
sg110
(dp292
g112
I1
ssg113
(dp293
(I0
I0
tp294
S'GC_7'
p295
sstp296
Rp297
ag0
(g63
g2
(dp298
g65
g0
(g66
g61
(lp299
g205
ag205
ag208
ag208
atp300
Rp301
sg93
(lp302
g262
asg75
(lp303
g0
(g97
g61
(lp304
tp305
Rp306
(dp307
g102
g106
sg107
I00
sg108
I0
sbasg109
I9
sg110
(dp308
g112
I2
ssg113
(dp309
(I0
I0
tp310
S'GC_8'
p311
sstp312
Rp313
ag0
(g63
g2
(dp314
g65
g0
(g66
g61
(lp315
g197
ag205
ag208
ag283
atp316
Rp317
sg93
(lp318
S'VVVV5'
p319
asg75
(lp320
g0
(g97
g61
(lp321
tp322
Rp323
(dp324
g102
g106
sg107
I00
sg108
I0
sbasg109
I10
sg110
(dp325
g112
I2
ssg113
(dp326
(I0
I0
tp327
S'GC_17'
p328
sstp329
Rp330
ag0
(g63
g2
(dp331
g65
g0
(g66
g61
(lp332
g283
ag283
ag90
ag90
atp333
Rp334
sg93
(lp335
g228
asg75
(lp336
g0
(g97
g61
(lp337
tp338
Rp339
(dp340
g102
g106
sg107
I00
sg108
I0
sbasg109
I11
sg110
(dp341
g112
I2
ssg113
(dp342
(I0
I0
tp343
S'GC_20'
p344
sstp345
Rp346
ag0
(g63
g2
(dp347
g65
g0
(g66
g61
(lp348
g283
ag283
ag90
atp349
Rp350
sg93
(lp351
g245
asg75
(lp352
g0
(g97
g61
(lp353
tp354
Rp355
(dp356
g102
g106
sg107
I00
sg108
I0
sbasg109
I12
sg110
(dp357
g112
I1
ssg113
(dp358
(I0
I0
tp359
S'GC_23'
p360
sstp361
Rp362
ag0
(g63
g2
(dp363
g65
g0
(g66
g61
(lp364
g205
ag208
ag283
ag283
atp365
Rp366
sg93
(lp367
g262
asg75
(lp368
g0
(g97
g61
(lp369
tp370
Rp371
(dp372
g102
g106
sg107
I00
sg108
I0
sbasg109
I13
sg110
(dp373
g112
I2
ssg113
(dp374
(I0
I0
tp375
S'GC_9'
p376
sstp377
Rp378
ag0
(g63
g2
(dp379
g65
g0
(g66
g61
(lp380
g0
(g68
g2
(dp381
g70
S'd'
p382
sg85
I00
sg13
S'd'
p383
sg74
I00
sg75
I3
sg76
g124
sg78
F-0.33333333333333331
sg79
g124
sg81
S'd~'
p384
sg83
S'straight'
p385
sg72
I01
sg86
I2
sg87
g382
sg88
I1
stp386
Rp387
ag0
(g68
g2
(dp388
g70
g382
sg72
I01
sg13
g383
sg74
I00
sg75
I3
sg76
g124
sg78
F-0.33333333333333331
sg79
g124
sg81
g384
sg83
g385
sg85
I01
sg86
I2
sg87
g382
sg88
I1
stp389
Rp390
ag197
atp391
Rp392
sg93
(lp393
S'FFV1'
p394
asg75
(lp395
g0
(g97
g61
(lp396
cmadgraph.core.color_algebra
T
p397
(I1
I0
tp398
Rp399
atp400
Rp401
(dp402
g102
g106
sg107
I00
sg108
I0
sbasg109
I14
sg110
(dp403
g112
I1
ssg113
(dp404
(I0
I0
tp405
S'GC_1'
p406
sstp407
Rp408
ag0
(g63
g2
(dp409
g65
g0
(g66
g61
(lp410
g0
(g68
g2
(dp411
g70
S's'
p412
sg85
I00
sg13
S's'
p413
sg74
I00
sg75
I3
sg76
g124
sg78
F-0.33333333333333331
sg79
g124
sg81
S's~'
p414
sg83
g385
sg72
I01
sg86
I2
sg87
g412
sg88
I3
stp415
Rp416
ag0
(g68
g2
(dp417
g70
g412
sg72
I01
sg13
g413
sg74
I00
sg75
I3
sg76
g124
sg78
F-0.33333333333333331
sg79
g124
sg81
g414
sg83
g385
sg85
I01
sg86
I2
sg87
g412
sg88
I3
stp418
Rp419
ag197
atp420
Rp421
sg93
(lp422
g394
asg75
(lp423
g0
(g97
g61
(lp424
g397
(I1
I0
tp425
Rp426
atp427
Rp428
(dp429
g102
g106
sg107
I00
sg108
I0
sbasg109
I15
sg110
(dp430
g112
I1
ssg113
(dp431
(I0
I0
tp432
g406
sstp433
Rp434
ag0
(g63
g2
(dp435
g65
g0
(g66
g61
(lp436
g0
(g68
g2
(dp437
g70
S'b'
p438
sg85
I00
sg13
S'b'
p439
sg74
I00
sg75
I3
sg76
g124
sg78
F-0.33333333333333331
sg79
S'MB'
p440
sg81
S'b~'
p441
sg83
g385
sg72
I01
sg86
I2
sg87
g438
sg88
I5
stp442
Rp443
ag0
(g68
g2
(dp444
g70
g438
sg72
I01
sg13
g439
sg74
I00
sg75
I3
sg76
g124
sg78
F-0.33333333333333331
sg79
g440
sg81
g441
sg83
g385
sg85
I01
sg86
I2
sg87
g438
sg88
I5
stp445
Rp446
ag197
atp447
Rp448
sg93
(lp449
g394
asg75
(lp450
g0
(g97
g61
(lp451
g397
(I1
I0
tp452
Rp453
atp454
Rp455
(dp456
g102
g106
sg107
I00
sg108
I0
sbasg109
I16
sg110
(dp457
g112
I1
ssg113
(dp458
(I0
I0
tp459
g406
sstp460
Rp461
ag0
(g63
g2
(dp462
g65
g0
(g66
g61
(lp463
g0
(g68
g2
(dp464
g70
S'e-'
p465
sg85
I00
sg13
S'e-'
p466
sg74
I00
sg75
I1
sg76
g124
sg78
F-1.0
sg79
g124
sg81
S'e+'
p467
sg83
g385
sg72
I01
sg86
I2
sg87
g465
sg88
I11
stp468
Rp469
ag0
(g68
g2
(dp470
g70
g465
sg72
I01
sg13
g466
sg74
I00
sg75
I1
sg76
g124
sg78
F-1.0
sg79
g124
sg81
g467
sg83
g385
sg85
I01
sg86
I2
sg87
g465
sg88
I11
stp471
Rp472
ag197
atp473
Rp474
sg93
(lp475
g394
asg75
(lp476
g0
(g97
g61
(lp477
tp478
Rp479
(dp480
g102
g106
sg107
I00
sg108
I0
sbasg109
I17
sg110
(dp481
g112
I1
ssg113
(dp482
(I0
I0
tp483
S'GC_3'
p484
sstp485
Rp486
ag0
(g63
g2
(dp487
g65
g0
(g66
g61
(lp488
g0
(g68
g2
(dp489
g70
S'm-'
p490
sg85
I00
sg13
S'm-'
p491
sg74
I00
sg75
I1
sg76
g124
sg78
F-1.0
sg79
g124
sg81
S'm+'
p492
sg83
g385
sg72
I01
sg86
I2
sg87
g490
sg88
I13
stp493
Rp494
ag0
(g68
g2
(dp495
g70
g490
sg72
I01
sg13
g491
sg74
I00
sg75
I1
sg76
g124
sg78
F-1.0
sg79
g124
sg81
g492
sg83
g385
sg85
I01
sg86
I2
sg87
g490
sg88
I13
stp496
Rp497
ag197
atp498
Rp499
sg93
(lp500
g394
asg75
(lp501
g0
(g97
g61
(lp502
tp503
Rp504
(dp505
g102
g106
sg107
I00
sg108
I0
sbasg109
I18
sg110
(dp506
g112
I1
ssg113
(dp507
(I0
I0
tp508
g484
sstp509
Rp510
ag0
(g63
g2
(dp511
g65
g0
(g66
g61
(lp512
g0
(g68
g2
(dp513
g70
S'tt-'
p514
sg85
I00
sg13
S'tt-'
p515
sg74
I00
sg75
I1
sg76
g124
sg78
F-1.0
sg79
S'MTA'
p516
sg81
S'tt+'
p517
sg83
g385
sg72
I01
sg86
I2
sg87
g514
sg88
I15
stp518
Rp519
ag0
(g68
g2
(dp520
g70
g514
sg72
I01
sg13
g515
sg74
I00
sg75
I1
sg76
g124
sg78
F-1.0
sg79
g516
sg81
g517
sg83
g385
sg85
I01
sg86
I2
sg87
g514
sg88
I15
stp521
Rp522
ag197
atp523
Rp524
sg93
(lp525
g394
asg75
(lp526
g0
(g97
g61
(lp527
tp528
Rp529
(dp530
g102
g106
sg107
I00
sg108
I0
sbasg109
I19
sg110
(dp531
g112
I1
ssg113
(dp532
(I0
I0
tp533
g484
sstp534
Rp535
ag0
(g63
g2
(dp536
g65
g0
(g66
g61
(lp537
g0
(g68
g2
(dp538
g70
S'u'
p539
sg85
I00
sg13
S'u'
p540
sg74
I00
sg75
I3
sg76
g124
sg78
F0.66666666666666663
sg79
g124
sg81
S'u~'
p541
sg83
g385
sg72
I01
sg86
I2
sg87
g539
sg88
I2
stp542
Rp543
ag0
(g68
g2
(dp544
g70
g539
sg72
I01
sg13
g540
sg74
I00
sg75
I3
sg76
g124
sg78
F0.66666666666666663
sg79
g124
sg81
g541
sg83
g385
sg85
I01
sg86
I2
sg87
g539
sg88
I2
stp545
Rp546
ag197
atp547
Rp548
sg93
(lp549
g394
asg75
(lp550
g0
(g97
g61
(lp551
g397
(I1
I0
tp552
Rp553
atp554
Rp555
(dp556
g102
g106
sg107
I00
sg108
I0
sbasg109
I20
sg110
(dp557
g112
I1
ssg113
(dp558
(I0
I0
tp559
S'GC_2'
p560
sstp561
Rp562
ag0
(g63
g2
(dp563
g65
g0
(g66
g61
(lp564
g0
(g68
g2
(dp565
g70
S'c'
p566
sg85
I00
sg13
S'c'
p567
sg74
I00
sg75
I3
sg76
g124
sg78
F0.66666666666666663
sg79
g124
sg81
S'c~'
p568
sg83
g385
sg72
I01
sg86
I2
sg87
g566
sg88
I4
stp569
Rp570
ag0
(g68
g2
(dp571
g70
g566
sg72
I01
sg13
g567
sg74
I00
sg75
I3
sg76
g124
sg78
F0.66666666666666663
sg79
g124
sg81
g568
sg83
g385
sg85
I01
sg86
I2
sg87
g566
sg88
I4
stp572
Rp573
ag197
atp574
Rp575
sg93
(lp576
g394
asg75
(lp577
g0
(g97
g61
(lp578
g397
(I1
I0
tp579
Rp580
atp581
Rp582
(dp583
g102
g106
sg107
I00
sg108
I0
sbasg109
I21
sg110
(dp584
g112
I1
ssg113
(dp585
(I0
I0
tp586
g560
sstp587
Rp588
ag0
(g63
g2
(dp589
g65
g0
(g66
g61
(lp590
g0
(g68
g2
(dp591
g70
S't'
p592
sg85
I00
sg13
S't'
p593
sg74
I00
sg75
I3
sg76
S'WT'
p594
sg78
F0.66666666666666663
sg79
S'MT'
p595
sg81
S't~'
p596
sg83
g385
sg72
I01
sg86
I2
sg87
g592
sg88
I6
stp597
Rp598
ag0
(g68
g2
(dp599
g70
g592
sg72
I01
sg13
g593
sg74
I00
sg75
I3
sg76
g594
sg78
F0.66666666666666663
sg79
g595
sg81
g596
sg83
g385
sg85
I01
sg86
I2
sg87
g592
sg88
I6
stp600
Rp601
ag197
atp602
Rp603
sg93
(lp604
g394
asg75
(lp605
g0
(g97
g61
(lp606
g397
(I1
I0
tp607
Rp608
atp609
Rp610
(dp611
g102
g106
sg107
I00
sg108
I0
sbasg109
I22
sg110
(dp612
g112
I1
ssg113
(dp613
(I0
I0
tp614
g560
sstp615
Rp616
ag0
(g63
g2
(dp617
g65
g0
(g66
g61
(lp618
g387
ag390
ag128
atp619
Rp620
sg93
(lp621
g394
asg75
(lp622
g0
(g97
g61
(lp623
g397
(I2
I1
I0
tp624
Rp625
atp626
Rp627
(dp628
g102
g106
sg107
I00
sg108
I0
sbasg109
I23
sg110
(dp629
g142
I1
ssg113
(dp630
(I0
I0
tp631
S'GC_5'
p632
sstp633
Rp634
ag0
(g63
g2
(dp635
g65
g0
(g66
g61
(lp636
g416
ag419
ag128
atp637
Rp638
sg93
(lp639
g394
asg75
(lp640
g0
(g97
g61
(lp641
g397
(I2
I1
I0
tp642
Rp643
atp644
Rp645
(dp646
g102
g106
sg107
I00
sg108
I0
sbasg109
I24
sg110
(dp647
g142
I1
ssg113
(dp648
(I0
I0
tp649
g632
sstp650
Rp651
ag0
(g63
g2
(dp652
g65
g0
(g66
g61
(lp653
g443
ag446
ag128
atp654
Rp655
sg93
(lp656
g394
asg75
(lp657
g0
(g97
g61
(lp658
g397
(I2
I1
I0
tp659
Rp660
atp661
Rp662
(dp663
g102
g106
sg107
I00
sg108
I0
sbasg109
I25
sg110
(dp664
g142
I1
ssg113
(dp665
(I0
I0
tp666
g632
sstp667
Rp668
ag0
(g63
g2
(dp669
g65
g0
(g66
g61
(lp670
g443
ag446
ag90
atp671
Rp672
sg93
(lp673
S'FFS1'
p674
asg75
(lp675
g0
(g97
g61
(lp676
g397
(I1
I0
tp677
Rp678
atp679
Rp680
(dp681
g102
g106
sg107
I00
sg108
I0
sbasg109
I26
sg110
(dp682
g112
I1
ssg113
(dp683
(I0
I0
tp684
S'GC_24'
p685
sstp686
Rp687
ag0
(g63
g2
(dp688
g65
g0
(g66
g61
(lp689
g387
ag390
ag283
atp690
Rp691
sg93
(lp692
S'FFV2'
p693
aS'FFV3'
p694
asg75
(lp695
g0
(g97
g61
(lp696
g397
(I1
I0
tp697
Rp698
atp699
Rp700
(dp701
g102
g106
sg107
I00
sg108
I0
sbasg109
I27
sg110
(dp702
g112
I1
ssg113
(dp703
(I0
I1
tp704
S'GC_14'
p705
s(I0
I0
tp706
S'GC_12'
p707
sstp708
Rp709
ag0
(g63
g2
(dp710
g65
g0
(g66
g61
(lp711
g416
ag419
ag283
atp712
Rp713
sg93
(lp714
g693
ag694
asg75
(lp715
g0
(g97
g61
(lp716
g397
(I1
I0
tp717
Rp718
atp719
Rp720
(dp721
g102
g106
sg107
I00
sg108
I0
sbasg109
I28
sg110
(dp722
g112
I1
ssg113
(dp723
(I0
I1
tp724
g705
s(I0
I0
tp725
g707
sstp726
Rp727
ag0
(g63
g2
(dp728
g65
g0
(g66
g61
(lp729
g443
ag446
ag283
atp730
Rp731
sg93
(lp732
g693
ag694
asg75
(lp733
g0
(g97
g61
(lp734
g397
(I1
I0
tp735
Rp736
atp737
Rp738
(dp739
g102
g106
sg107
I00
sg108
I0
sbasg109
I29
sg110
(dp740
g112
I1
ssg113
(dp741
(I0
I1
tp742
g705
s(I0
I0
tp743
g707
sstp744
Rp745
ag0
(g63
g2
(dp746
g65
g0
(g66
g61
(lp747
g387
ag546
ag205
atp748
Rp749
sg93
(lp750
g693
asg75
(lp751
g0
(g97
g61
(lp752
g397
(I1
I0
tp753
Rp754
atp755
Rp756
(dp757
g102
g106
sg107
I00
sg108
I0
sbasg109
I30
sg110
(dp758
g112
I1
ssg113
(dp759
(I0
I0
tp760
S'GC_11'
p761
sstp762
Rp763
ag0
(g63
g2
(dp764
g65
g0
(g66
g61
(lp765
g416
ag573
ag205
atp766
Rp767
sg93
(lp768
g693
asg75
(lp769
g0
(g97
g61
(lp770
g397
(I1
I0
tp771
Rp772
atp773
Rp774
(dp775
g102
g106
sg107
I00
sg108
I0
sbasg109
I31
sg110
(dp776
g112
I1
ssg113
(dp777
(I0
I0
tp778
g761
sstp779
Rp780
ag0
(g63
g2
(dp781
g65
g0
(g66
g61
(lp782
g443
ag601
ag205
atp783
Rp784
sg93
(lp785
g693
asg75
(lp786
g0
(g97
g61
(lp787
g397
(I1
I0
tp788
Rp789
atp790
Rp791
(dp792
g102
g106
sg107
I00
sg108
I0
sbasg109
I32
sg110
(dp793
g112
I1
ssg113
(dp794
(I0
I0
tp795
g761
sstp796
Rp797
ag0
(g63
g2
(dp798
g65
g0
(g66
g61
(lp799
g543
ag390
ag208
atp800
Rp801
sg93
(lp802
g693
asg75
(lp803
g0
(g97
g61
(lp804
g397
(I1
I0
tp805
Rp806
atp807
Rp808
(dp809
g102
g106
sg107
I00
sg108
I0
sbasg109
I33
sg110
(dp810
g112
I1
ssg113
(dp811
(I0
I0
tp812
g761
sstp813
Rp814
ag0
(g63
g2
(dp815
g65
g0
(g66
g61
(lp816
g570
ag419
ag208
atp817
Rp818
sg93
(lp819
g693
asg75
(lp820
g0
(g97
g61
(lp821
g397
(I1
I0
tp822
Rp823
atp824
Rp825
(dp826
g102
g106
sg107
I00
sg108
I0
sbasg109
I34
sg110
(dp827
g112
I1
ssg113
(dp828
(I0
I0
tp829
g761
sstp830
Rp831
ag0
(g63
g2
(dp832
g65
g0
(g66
g61
(lp833
g598
ag446
ag208
atp834
Rp835
sg93
(lp836
g693
asg75
(lp837
g0
(g97
g61
(lp838
g397
(I1
I0
tp839
Rp840
atp841
Rp842
(dp843
g102
g106
sg107
I00
sg108
I0
sbasg109
I35
sg110
(dp844
g112
I1
ssg113
(dp845
(I0
I0
tp846
g761
sstp847
Rp848
ag0
(g63
g2
(dp849
g65
g0
(g66
g61
(lp850
g543
ag546
ag128
atp851
Rp852
sg93
(lp853
g394
asg75
(lp854
g0
(g97
g61
(lp855
g397
(I2
I1
I0
tp856
Rp857
atp858
Rp859
(dp860
g102
g106
sg107
I00
sg108
I0
sbasg109
I36
sg110
(dp861
g142
I1
ssg113
(dp862
(I0
I0
tp863
g632
sstp864
Rp865
ag0
(g63
g2
(dp866
g65
g0
(g66
g61
(lp867
g570
ag573
ag128
atp868
Rp869
sg93
(lp870
g394
asg75
(lp871
g0
(g97
g61
(lp872
g397
(I2
I1
I0
tp873
Rp874
atp875
Rp876
(dp877
g102
g106
sg107
I00
sg108
I0
sbasg109
I37
sg110
(dp878
g142
I1
ssg113
(dp879
(I0
I0
tp880
g632
sstp881
Rp882
ag0
(g63
g2
(dp883
g65
g0
(g66
g61
(lp884
g598
ag601
ag128
atp885
Rp886
sg93
(lp887
g394
asg75
(lp888
g0
(g97
g61
(lp889
g397
(I2
I1
I0
tp890
Rp891
atp892
Rp893
(dp894
g102
g106
sg107
I00
sg108
I0
sbasg109
I38
sg110
(dp895
g142
I1
ssg113
(dp896
(I0
I0
tp897
g632
sstp898
Rp899
ag0
(g63
g2
(dp900
g65
g0
(g66
g61
(lp901
g519
ag522
ag90
atp902
Rp903
sg93
(lp904
g674
asg75
(lp905
g0
(g97
g61
(lp906
tp907
Rp908
(dp909
g102
g106
sg107
I00
sg108
I0
sbasg109
I39
sg110
(dp910
g112
I1
ssg113
(dp911
(I0
I0
tp912
S'GC_26'
p913
sstp914
Rp915
ag0
(g63
g2
(dp916
g65
g0
(g66
g61
(lp917
g598
ag601
ag90
atp918
Rp919
sg93
(lp920
g674
asg75
(lp921
g0
(g97
g61
(lp922
g397
(I1
I0
tp923
Rp924
atp925
Rp926
(dp927
g102
g106
sg107
I00
sg108
I0
sbasg109
I40
sg110
(dp928
g112
I1
ssg113
(dp929
(I0
I0
tp930
S'GC_25'
p931
sstp932
Rp933
ag0
(g63
g2
(dp934
g65
g0
(g66
g61
(lp935
g469
ag472
ag283
atp936
Rp937
sg93
(lp938
g693
aS'FFV4'
p939
asg75
(lp940
g0
(g97
g61
(lp941
tp942
Rp943
(dp944
g102
g106
sg107
I00
sg108
I0
sbasg109
I41
sg110
(dp945
g112
I1
ssg113
(dp946
(I0
I1
tp947
S'GC_15'
p948
s(I0
I0
tp949
g707
sstp950
Rp951
ag0
(g63
g2
(dp952
g65
g0
(g66
g61
(lp953
g494
ag497
ag283
atp954
Rp955
sg93
(lp956
g693
ag939
asg75
(lp957
g0
(g97
g61
(lp958
tp959
Rp960
(dp961
g102
g106
sg107
I00
sg108
I0
sbasg109
I42
sg110
(dp962
g112
I1
ssg113
(dp963
(I0
I1
tp964
g948
s(I0
I0
tp965
g707
sstp966
Rp967
ag0
(g63
g2
(dp968
g65
g0
(g66
g61
(lp969
g519
ag522
ag283
atp970
Rp971
sg93
(lp972
g693
ag939
asg75
(lp973
g0
(g97
g61
(lp974
tp975
Rp976
(dp977
g102
g106
sg107
I00
sg108
I0
sbasg109
I43
sg110
(dp978
g112
I1
ssg113
(dp979
(I0
I1
tp980
g948
s(I0
I0
tp981
g707
sstp982
Rp983
ag0
(g63
g2
(dp984
g65
g0
(g66
g61
(lp985
g469
ag0
(g68
g2
(dp986
g70
S've'
p987
sg72
I01
sg13
S've'
p988
sg74
I00
sg75
I1
sg76
g124
sg78
F0.0
sg79
g124
sg81
S've~'
p989
sg83
g385
sg85
I01
sg86
I2
sg87
g987
sg88
I12
stp990
Rp991
ag205
atp992
Rp993
sg93
(lp994
g693
asg75
(lp995
g0
(g97
g61
(lp996
tp997
Rp998
(dp999
g102
g106
sg107
I00
sg108
I0
sbasg109
I44
sg110
(dp1000
g112
I1
ssg113
(dp1001
(I0
I0
tp1002
g761
sstp1003
Rp1004
ag0
(g63
g2
(dp1005
g65
g0
(g66
g61
(lp1006
g494
ag0
(g68
g2
(dp1007
g70
S'vm'
p1008
sg72
I01
sg13
S'vm'
p1009
sg74
I00
sg75
I1
sg76
g124
sg78
F0.0
sg79
g124
sg81
S'vm~'
p1010
sg83
g385
sg85
I01
sg86
I2
sg87
g1008
sg88
I14
stp1011
Rp1012
ag205
atp1013
Rp1014
sg93
(lp1015
g693
asg75
(lp1016
g0
(g97
g61
(lp1017
tp1018
Rp1019
(dp1020
g102
g106
sg107
I00
sg108
I0
sbasg109
I45
sg110
(dp1021
g112
I1
ssg113
(dp1022
(I0
I0
tp1023
g761
sstp1024
Rp1025
ag0
(g63
g2
(dp1026
g65
g0
(g66
g61
(lp1027
g519
ag0
(g68
g2
(dp1028
g70
S'vt'
p1029
sg72
I01
sg13
S'vt'
p1030
sg74
I00
sg75
I1
sg76
g124
sg78
F0.0
sg79
g124
sg81
S'vt~'
p1031
sg83
g385
sg85
I01
sg86
I2
sg87
g1029
sg88
I16
stp1032
Rp1033
ag205
atp1034
Rp1035
sg93
(lp1036
g693
asg75
(lp1037
g0
(g97
g61
(lp1038
tp1039
Rp1040
(dp1041
g102
g106
sg107
I00
sg108
I0
sbasg109
I46
sg110
(dp1042
g112
I1
ssg113
(dp1043
(I0
I0
tp1044
g761
sstp1045
Rp1046
ag0
(g63
g2
(dp1047
g65
g0
(g66
g61
(lp1048
g0
(g68
g2
(dp1049
g70
g987
sg85
I00
sg13
g988
sg74
I00
sg75
I1
sg76
g124
sg78
F0.0
sg79
g124
sg81
g989
sg83
g385
sg72
I01
sg86
I2
sg87
g987
sg88
I12
stp1050
Rp1051
ag472
ag208
atp1052
Rp1053
sg93
(lp1054
g693
asg75
(lp1055
g0
(g97
g61
(lp1056
tp1057
Rp1058
(dp1059
g102
g106
sg107
I00
sg108
I0
sbasg109
I47
sg110
(dp1060
g112
I1
ssg113
(dp1061
(I0
I0
tp1062
g761
sstp1063
Rp1064
ag0
(g63
g2
(dp1065
g65
g0
(g66
g61
(lp1066
g0
(g68
g2
(dp1067
g70
g1008
sg85
I00
sg13
g1009
sg74
I00
sg75
I1
sg76
g124
sg78
F0.0
sg79
g124
sg81
g1010
sg83
g385
sg72
I01
sg86
I2
sg87
g1008
sg88
I14
stp1068
Rp1069
ag497
ag208
atp1070
Rp1071
sg93
(lp1072
g693
asg75
(lp1073
g0
(g97
g61
(lp1074
tp1075
Rp1076
(dp1077
g102
g106
sg107
I00
sg108
I0
sbasg109
I48
sg110
(dp1078
g112
I1
ssg113
(dp1079
(I0
I0
tp1080
g761
sstp1081
Rp1082
ag0
(g63
g2
(dp1083
g65
g0
(g66
g61
(lp1084
g0
(g68
g2
(dp1085
g70
g1029
sg85
I00
sg13
g1030
sg74
I00
sg75
I1
sg76
g124
sg78
F0.0
sg79
g124
sg81
g1031
sg83
g385
sg72
I01
sg86
I2
sg87
g1029
sg88
I16
stp1086
Rp1087
ag522
ag208
atp1088
Rp1089
sg93
(lp1090
g693
asg75
(lp1091
g0
(g97
g61
(lp1092
tp1093
Rp1094
(dp1095
g102
g106
sg107
I00
sg108
I0
sbasg109
I49
sg110
(dp1096
g112
I1
ssg113
(dp1097
(I0
I0
tp1098
g761
sstp1099
Rp1100
ag0
(g63
g2
(dp1101
g65
g0
(g66
g61
(lp1102
g543
ag546
ag283
atp1103
Rp1104
sg93
(lp1105
g693
aS'FFV5'
p1106
asg75
(lp1107
g0
(g97
g61
(lp1108
g397
(I1
I0
tp1109
Rp1110
atp1111
Rp1112
(dp1113
g102
g106
sg107
I00
sg108
I0
sbasg109
I50
sg110
(dp1114
g112
I1
ssg113
(dp1115
(I0
I1
tp1116
g705
s(I0
I0
tp1117
S'GC_13'
p1118
sstp1119
Rp1120
ag0
(g63
g2
(dp1121
g65
g0
(g66
g61
(lp1122
g570
ag573
ag283
atp1123
Rp1124
sg93
(lp1125
g693
ag1106
asg75
(lp1126
g0
(g97
g61
(lp1127
g397
(I1
I0
tp1128
Rp1129
atp1130
Rp1131
(dp1132
g102
g106
sg107
I00
sg108
I0
sbasg109
I51
sg110
(dp1133
g112
I1
ssg113
(dp1134
(I0
I1
tp1135
g705
s(I0
I0
tp1136
g1118
sstp1137
Rp1138
ag0
(g63
g2
(dp1139
g65
g0
(g66
g61
(lp1140
g598
ag601
ag283
atp1141
Rp1142
sg93
(lp1143
g693
ag1106
asg75
(lp1144
g0
(g97
g61
(lp1145
g397
(I1
I0
tp1146
Rp1147
atp1148
Rp1149
(dp1150
g102
g106
sg107
I00
sg108
I0
sbasg109
I52
sg110
(dp1151
g112
I1
ssg113
(dp1152
(I0
I1
tp1153
g705
s(I0
I0
tp1154
g1118
sstp1155
Rp1156
ag0
(g63
g2
(dp1157
g65
g0
(g66
g61
(lp1158
g1051
ag991
ag283
atp1159
Rp1160
sg93
(lp1161
g693
asg75
(lp1162
g0
(g97
g61
(lp1163
tp1164
Rp1165
(dp1166
g102
g106
sg107
I00
sg108
I0
sbasg109
I53
sg110
(dp1167
g112
I1
ssg113
(dp1168
(I0
I0
tp1169
S'GC_19'
p1170
sstp1171
Rp1172
ag0
(g63
g2
(dp1173
g65
g0
(g66
g61
(lp1174
g1069
ag1012
ag283
atp1175
Rp1176
sg93
(lp1177
g693
asg75
(lp1178
g0
(g97
g61
(lp1179
tp1180
Rp1181
(dp1182
g102
g106
sg107
I00
sg108
I0
sbasg109
I54
sg110
(dp1183
g112
I1
ssg113
(dp1184
(I0
I0
tp1185
g1170
sstp1186
Rp1187
ag0
(g63
g2
(dp1188
g65
g0
(g66
g61
(lp1189
g1087
ag1033
ag283
atp1190
Rp1191
sg93
(lp1192
g693
asg75
(lp1193
g0
(g97
g61
(lp1194
tp1195
Rp1196
(dp1197
g102
g106
sg107
I00
sg108
I0
sbasg109
I55
sg110
(dp1198
g112
I1
ssg113
(dp1199
(I0
I0
tp1200
g1170
sstp1201
Rp1202
ag0
(g63
g2
(dp1203
g65
g0
(g66
g61
(lp1204
g546
ag546
ag0
(g68
g2
(dp1205
g70
S'six'
p1206
sg85
I00
sg13
S'six'
p1207
sg74
I00
sg75
I6
sg76
S'WSIX'
p1208
sg78
F1.3333333333333333
sg79
S'MSIX'
p1209
sg81
S'six~'
p1210
sg83
g84
sg72
I01
sg86
I1
sg87
S'\\overline{six}'
p1211
sg88
I600001
stp1212
Rp1213
atp1214
Rp1215
sg93
(lp1216
g674
asg75
(lp1217
g0
(g97
g61
(lp1218
cmadgraph.core.color_algebra
K6B
p1219
(I0
I1
I2
tp1220
Rp1221
atp1222
Rp1223
(dp1224
g102
g106
sg107
I00
sg108
I0
sbasg109
I56
sg110
(dp1225
g112
I1
ssg113
(dp1226
(I0
I0
tp1227
S'GC_27'
p1228
sstp1229
Rp1230
ag0
(g63
g2
(dp1231
g65
g0
(g66
g61
(lp1232
g543
ag543
ag0
(g68
g2
(dp1233
g70
g1206
sg72
I01
sg13
g1207
sg74
I00
sg75
I6
sg76
g1208
sg78
F1.3333333333333333
sg79
g1209
sg81
g1210
sg83
g84
sg85
I01
sg86
I1
sg87
g1211
sg88
I600001
stp1234
Rp1235
atp1236
Rp1237
sg93
(lp1238
g674
asg75
(lp1239
g0
(g97
g61
(lp1240
cmadgraph.core.color_algebra
K6
p1241
(I2
I0
I1
tp1242
Rp1243
atp1244
Rp1245
(dp1246
g102
g106
sg107
I00
sg108
I0
sbasg109
I57
sg110
(dp1247
g112
I1
ssg113
(dp1248
(I0
I0
tp1249
g1228
sstp1250
Rp1251
ag0
(g63
g2
(dp1252
g65
g0
(g66
g61
(lp1253
g601
ag601
ag1213
atp1254
Rp1255
sg93
(lp1256
g674
asg75
(lp1257
g0
(g97
g61
(lp1258
g1219
(I0
I1
I2
tp1259
Rp1260
atp1261
Rp1262
(dp1263
g102
g106
sg107
I00
sg108
I0
sbasg109
I58
sg110
(dp1264
g112
I1
ssg113
(dp1265
(I0
I0
tp1266
S'GC_28'
p1267
sstp1268
Rp1269
ag0
(g63
g2
(dp1270
g65
g0
(g66
g61
(lp1271
g598
ag598
ag1235
atp1272
Rp1273
sg93
(lp1274
g674
asg75
(lp1275
g0
(g97
g61
(lp1276
g1241
(I2
I0
I1
tp1277
Rp1278
atp1279
Rp1280
(dp1281
g102
g106
sg107
I00
sg108
I0
sbasg109
I59
sg110
(dp1282
g112
I1
ssg113
(dp1283
(I0
I0
tp1284
g1267
sstp1285
Rp1286
ag0
(g63
g2
(dp1287
g65
g0
(g66
g61
(lp1288
g128
ag1213
ag1235
atp1289
Rp1290
sg93
(lp1291
S'VSS1'
p1292
asg75
(lp1293
g0
(g97
g61
(lp1294
cmadgraph.core.color_algebra
T6
p1295
(I2
I1
I0
tp1296
Rp1297
atp1298
Rp1299
(dp1300
g102
g106
sg107
I00
sg108
I0
sbasg109
I60
sg110
(dp1301
g142
I1
ssg113
(dp1302
(I0
I0
tp1303
S'GC_29'
p1304
sstp1305
Rp1306
atp1307
Rp1308
sS'ref_dict_to1'
p1309
(dp1310
sg65
g0
(g66
g61
(lp1311
g991
ag1012
ag1033
ag472
ag497
ag522
ag546
ag573
ag601
ag390
ag419
ag446
ag197
ag283
ag208
ag128
ag90
ag1235
atp1312
Rp1313
sg93
NsS'got_majoranas'
p1314
NsS'particle_dict'
p1315
(dp1316
I1
g390
sI2
g546
sI3
g419
sI4
g573
sI5
g446
sI6
g601
sI11
g472
sI12
g991
sI13
g497
sI14
g1012
sI15
g522
sI16
g1033
sI21
g128
sI22
g197
sI23
g283
sI24
g208
sI25
g90
sI-600001
g1213
sI600001
g1235
sI-2
g543
sI-24
g205
sI-16
g1087
sI-15
g519
sI-14
g1069
sI-13
g494
sI-12
g1051
sI-11
g469
sI-6
g598
sI-5
g443
sI-4
g570
sI-3
g416
sI-1
g387
ssS'parameters'
p1317
(dp1318
(S'aEWM1'
p1319
tp1320
(lp1321
g0
(cmadgraph.core.base_objects
ModelVariable
p1322
g7
Ntp1323
Rp1324
(dp1325
g11
S'1/aEWM1'
p1326
sS'type'
p1327
S'real'
p1328
sg13
S'aEW'
p1329
sS'value'
p1330
NsS'depend'
p1331
g1320
sbag0
(g1322
g7
Ntp1332
Rp1333
(dp1334
g11
S'cmath.sqrt(MZ__exp__2/2. + cmath.sqrt(MZ__exp__4/4. - (aEW*cmath.pi*MZ__exp__2)/(Gf*sqrt__2)))'
p1335
sg1327
g1328
sg13
g202
sg1330
Nsg1331
(g1319
tp1336
sbag0
(g1322
g7
Ntp1337
Rp1338
(dp1339
g11
S' cmath.sqrt(aEW) '
p1340
sg1327
g1328
sg13
S'sqrt__aEW'
p1341
sg1330
Nsg1331
(g1319
tp1342
sbag0
(g1322
g7
Ntp1343
Rp1344
(dp1345
g11
S'2*sqrt__aEW*cmath.sqrt(cmath.pi)'
p1346
sg1327
g1328
sg13
S'ee'
p1347
sg1330
Nsg1331
(g1319
tp1348
sbag0
(g1322
g7
Ntp1349
Rp1350
(dp1351
g11
S'MW**2'
p1352
sg1327
g1328
sg13
S'MW__exp__2'
p1353
sg1330
Nsg1331
(g1319
tp1354
sbag0
(g1322
g7
Ntp1355
Rp1356
(dp1357
g11
S'1 - MW__exp__2/MZ__exp__2'
p1358
sg1327
g1328
sg13
S'sw2'
p1359
sg1330
Nsg1331
(g1319
tp1360
sbag0
(g1322
g7
Ntp1361
Rp1362
(dp1363
g11
S'cmath.sqrt(1 - sw2)'
p1364
sg1327
g1328
sg13
S'cw'
p1365
sg1330
Nsg1331
(g1319
tp1366
sbag0
(g1322
g7
Ntp1367
Rp1368
(dp1369
g11
S' cmath.sqrt(sw2) '
p1370
sg1327
g1328
sg13
S'sqrt__sw2'
p1371
sg1330
Nsg1331
(g1319
tp1372
sbag0
(g1322
g7
Ntp1373
Rp1374
(dp1375
g11
g1371
sg1327
g1328
sg13
S'sw'
p1376
sg1330
Nsg1331
(g1319
tp1377
sbag0
(g1322
g7
Ntp1378
Rp1379
(dp1380
g11
S'ee/cw'
p1381
sg1327
g1328
sg13
S'g1'
p1382
sg1330
Nsg1331
(g1319
tp1383
sbag0
(g1322
g7
Ntp1384
Rp1385
(dp1386
g11
S'ee/sw'
p1387
sg1327
g1328
sg13
S'gw'
p1388
sg1330
Nsg1331
(g1319
tp1389
sbag0
(g1322
g7
Ntp1390
Rp1391
(dp1392
g11
S'(2*MW*sw)/ee'
p1393
sg1327
g1328
sg13
S'v'
p1394
sg1330
Nsg1331
(g1319
tp1395
sbag0
(g1322
g7
Ntp1396
Rp1397
(dp1398
g11
S'v**2'
p1399
sg1327
g1328
sg13
S'v__exp__2'
p1400
sg1330
Nsg1331
(g1319
tp1401
sbag0
(g1322
g7
Ntp1402
Rp1403
(dp1404
g11
S'MH__exp__2/(2.*v__exp__2)'
p1405
sg1327
g1328
sg13
S'lam'
p1406
sg1330
Nsg1331
(g1319
tp1407
sbag0
(g1322
g7
Ntp1408
Rp1409
(dp1410
g11
S'(ymb*sqrt__2)/v'
p1411
sg1327
g1328
sg13
S'yb'
p1412
sg1330
Nsg1331
(g1319
tp1413
sbag0
(g1322
g7
Ntp1414
Rp1415
(dp1416
g11
S'(ymt*sqrt__2)/v'
p1417
sg1327
g1328
sg13
S'yt'
p1418
sg1330
Nsg1331
(g1319
tp1419
sbag0
(g1322
g7
Ntp1420
Rp1421
(dp1422
g11
S'(ymtau*sqrt__2)/v'
p1423
sg1327
g1328
sg13
S'ytau'
p1424
sg1330
Nsg1331
(g1319
tp1425
sbag0
(g1322
g7
Ntp1426
Rp1427
(dp1428
g11
S'cmath.sqrt(lam*v__exp__2)'
p1429
sg1327
g1328
sg13
S'muH'
p1430
sg1330
Nsg1331
(g1319
tp1431
sbag0
(g1322
g7
Ntp1432
Rp1433
(dp1434
g11
S'gw**2'
p1435
sg1327
g1328
sg13
S'gw__exp__2'
p1436
sg1330
Nsg1331
(g1319
tp1437
sbag0
(g1322
g7
Ntp1438
Rp1439
(dp1440
g11
S'cw**2'
p1441
sg1327
g1328
sg13
S'cw__exp__2'
p1442
sg1330
Nsg1331
(g1319
tp1443
sbag0
(g1322
g7
Ntp1444
Rp1445
(dp1446
g11
S'ee**2'
p1447
sg1327
g1328
sg13
S'ee__exp__2'
p1448
sg1330
Nsg1331
(g1319
tp1449
sbag0
(g1322
g7
Ntp1450
Rp1451
(dp1452
g11
S'sw**2'
p1453
sg1327
g1328
sg13
S'sw__exp__2'
p1454
sg1330
Nsg1331
(g1319
tp1455
sbas(S'external'
p1456
tp1457
(lp1458
g0
(cmadgraph.core.base_objects
ParamCardVariable
p1459
g7
Ntp1460
Rp1461
(dp1462
S'lhablock'
p1463
S'SMINPUTS'
p1464
sg13
S'aEWM1'
p1465
sg1330
F132.50698
sS'lhacode'
p1466
(lp1467
I1
asbag0
(g1459
g7
Ntp1468
Rp1469
(dp1470
g1463
g1464
sg13
S'Gf'
p1471
sg1330
F1.16639e-05
sg1466
(lp1472
I2
asbag0
(g1459
g7
Ntp1473
Rp1474
(dp1475
g1463
g1464
sg13
S'aS'
p1476
sg1330
F0.11799999999999999
sg1466
(lp1477
I3
asbag0
(g1459
g7
Ntp1478
Rp1479
(dp1480
g1463
S'YUKAWA'
p1481
sg13
S'ymb'
p1482
sg1330
F4.2000000000000002
sg1466
(lp1483
I5
asbag0
(g1459
g7
Ntp1484
Rp1485
(dp1486
g1463
g1481
sg13
S'ymt'
p1487
sg1330
F164.5
sg1466
(lp1488
I6
asbag0
(g1459
g7
Ntp1489
Rp1490
(dp1491
g1463
g1481
sg13
S'ymtau'
p1492
sg1330
F1.7769999999999999
sg1466
(lp1493
I15
asbag0
(g1459
g7
Ntp1494
Rp1495
(dp1496
g1463
S'MASS'
p1497
sg13
g516
sg1330
F1.7769999999999999
sg1466
(lp1498
I15
asbag0
(g1459
g7
Ntp1499
Rp1500
(dp1501
g1463
g1497
sg13
g595
sg1330
F174.30000000000001
sg1466
(lp1502
I6
asbag0
(g1459
g7
Ntp1503
Rp1504
(dp1505
g1463
g1497
sg13
g440
sg1330
F4.7000000000000002
sg1466
(lp1506
I5
asbag0
(g1459
g7
Ntp1507
Rp1508
(dp1509
g1463
g1497
sg13
g280
sg1330
F91.188000000000002
sg1466
(lp1510
I23
asbag0
(g1459
g7
Ntp1511
Rp1512
(dp1513
g1463
g1497
sg13
g80
sg1330
F120.0
sg1466
(lp1514
I25
asbag0
(g1459
g7
Ntp1515
Rp1516
(dp1517
g1463
g1497
sg13
g1209
sg1330
F600.0
sg1466
(lp1518
I600001
asbag0
(g1459
g7
Ntp1519
Rp1520
(dp1521
g1463
S'DECAY'
p1522
sg13
g594
sg1330
F1.50833649
sg1466
(lp1523
I6
asbag0
(g1459
g7
Ntp1524
Rp1525
(dp1526
g1463
g1522
sg13
g279
sg1330
F2.4414035100000002
sg1466
(lp1527
I23
asbag0
(g1459
g7
Ntp1528
Rp1529
(dp1530
g1463
g1522
sg13
g201
sg1330
F2.04759951
sg1466
(lp1531
I24
asbag0
(g1459
g7
Ntp1532
Rp1533
(dp1534
g1463
g1522
sg13
g77
sg1330
F0.0057530884799999998
sg1466
(lp1535
I25
asbag0
(g1459
g7
Ntp1536
Rp1537
(dp1538
g1463
g1522
sg13
g1208
sg1330
F1.0
sg1466
(lp1539
I600001
asbag0
(g1459
g7
Ntp1540
Rp1541
(dp1542
g1463
S'USRBLOCK'
p1543
sg13
S'uusix'
p1544
sg1330
F0.10000000000000001
sg1466
(lp1545
I1
asbag0
(g1459
g7
Ntp1546
Rp1547
(dp1548
g1463
g1543
sg13
S'ttsix'
p1549
sg1330
F1.0
sg1466
(lp1550
I2
asbas(t(lp1551
g0
(g1322
g7
Ntp1552
Rp1553
(dp1554
g11
S'MZ**2'
p1555
sg1327
g1328
sg13
S'MZ__exp__2'
p1556
sg1330
Nsg1331
(tsbag0
(g1322
g7
Ntp1557
Rp1558
(dp1559
g11
S'MZ**4'
p1560
sg1327
g1328
sg13
S'MZ__exp__4'
p1561
sg1330
Nsg1331
(tsbag0
(g1322
g7
Ntp1562
Rp1563
(dp1564
g11
S' cmath.sqrt(2) '
p1565
sg1327
g1328
sg13
S'sqrt__2'
p1566
sg1330
Nsg1331
(tsbag0
(g1322
g7
Ntp1567
Rp1568
(dp1569
g11
S'MH**2'
p1570
sg1327
g1328
sg13
S'MH__exp__2'
p1571
sg1330
Nsg1331
(tsbag0
(g1322
g7
Ntp1572
Rp1573
(dp1574
g11
S'complex(0,1)'
p1575
sg1327
S'complex'
p1576
sg13
S'complexi'
p1577
sg1330
Nsg1331
(tsbas(S'aS'
p1578
tp1579
(lp1580
g0
(g1322
g7
Ntp1581
Rp1582
(dp1583
g11
S' cmath.sqrt(aS) '
p1584
sg1327
g1328
sg13
S'sqrt__aS'
p1585
sg1330
Nsg1331
g1579
sbag0
(g1322
g7
Ntp1586
Rp1587
(dp1588
g11
S'2*sqrt__aS*cmath.sqrt(cmath.pi)'
p1589
sg1327
g1328
sg13
g122
sg1330
Nsg1331
(g1578
tp1590
sbag0
(g1322
g7
Ntp1591
Rp1592
(dp1593
g11
S'G**2'
p1594
sg1327
g1328
sg13
S'G__exp__2'
p1595
sg1330
Nsg1331
(g1578
tp1596
sbassg113
(dp1597
(g1319
tp1598
(lp1599
g0
(g1322
g7
Ntp1600
Rp1601
(dp1602
g11
S'-(ee*complexi)/3.'
p1603
sg1327
g1576
sg13
g406
sg1330
Nsg1331
g1598
sbag0
(g1322
g7
Ntp1604
Rp1605
(dp1606
g11
S'(2*ee*complexi)/3.'
p1607
sg1327
g1576
sg13
g560
sg1330
Nsg1331
(g1319
tp1608
sbag0
(g1322
g7
Ntp1609
Rp1610
(dp1611
g11
S'-(ee*complexi)'
p1612
sg1327
g1576
sg13
g484
sg1330
Nsg1331
(g1319
tp1613
sbag0
(g1322
g7
Ntp1614
Rp1615
(dp1616
g11
S'cw*complexi*gw'
p1617
sg1327
g1576
sg13
g295
sg1330
Nsg1331
(g1319
tp1618
sbag0
(g1322
g7
Ntp1619
Rp1620
(dp1621
g11
S'-(complexi*gw__exp__2)'
p1622
sg1327
g1576
sg13
g311
sg1330
Nsg1331
(g1319
tp1623
sbag0
(g1322
g7
Ntp1624
Rp1625
(dp1626
g11
S'cw__exp__2*complexi*gw__exp__2'
p1627
sg1327
g1576
sg13
g376
sg1330
Nsg1331
(g1319
tp1628
sbag0
(g1322
g7
Ntp1629
Rp1630
(dp1631
g11
S'(ee__exp__2*complexi)/(2.*sw__exp__2)'
p1632
sg1327
g1576
sg13
g237
sg1330
Nsg1331
(g1319
tp1633
sbag0
(g1322
g7
Ntp1634
Rp1635
(dp1636
g11
S'(ee*complexi)/(sw*sqrt__2)'
p1637
sg1327
g1576
sg13
g761
sg1330
Nsg1331
(g1319
tp1638
sbag0
(g1322
g7
Ntp1639
Rp1640
(dp1641
g11
S'-(cw*ee*complexi)/(2.*sw)'
p1642
sg1327
g1576
sg13
g707
sg1330
Nsg1331
(g1319
tp1643
sbag0
(g1322
g7
Ntp1644
Rp1645
(dp1646
g11
S'(cw*ee*complexi)/(2.*sw)'
p1647
sg1327
g1576
sg13
g1118
sg1330
Nsg1331
(g1319
tp1648
sbag0
(g1322
g7
Ntp1649
Rp1650
(dp1651
g11
S'-(ee*complexi*sw)/(6.*cw)'
p1652
sg1327
g1576
sg13
g705
sg1330
Nsg1331
(g1319
tp1653
sbag0
(g1322
g7
Ntp1654
Rp1655
(dp1656
g11
S'(ee*complexi*sw)/(2.*cw)'
p1657
sg1327
g1576
sg13
g948
sg1330
Nsg1331
(g1319
tp1658
sbag0
(g1322
g7
Ntp1659
Rp1660
(dp1661
g11
S'complexi*gw*sw'
p1662
sg1327
g1576
sg13
g220
sg1330
Nsg1331
(g1319
tp1663
sbag0
(g1322
g7
Ntp1664
Rp1665
(dp1666
g11
S'-2*cw*complexi*gw__exp__2*sw'
p1667
sg1327
g1576
sg13
g328
sg1330
Nsg1331
(g1319
tp1668
sbag0
(g1322
g7
Ntp1669
Rp1670
(dp1671
g11
S'complexi*gw__exp__2*sw__exp__2'
p1672
sg1327
g1576
sg13
g271
sg1330
Nsg1331
(g1319
tp1673
sbag0
(g1322
g7
Ntp1674
Rp1675
(dp1676
g11
S'(cw*ee*complexi)/(2.*sw) + (ee*complexi*sw)/(2.*cw)'
p1677
sg1327
g1576
sg13
g1170
sg1330
Nsg1331
(g1319
tp1678
sbag0
(g1322
g7
Ntp1679
Rp1680
(dp1681
g11
S'ee__exp__2*complexi + (cw__exp__2*ee__exp__2*complexi)/(2.*sw__exp__2) + (ee__exp__2*complexi*sw__exp__2)/(2.*cw__exp__2)'
p1682
sg1327
g1576
sg13
g344
sg1330
Nsg1331
(g1319
tp1683
sbag0
(g1322
g7
Ntp1684
Rp1685
(dp1686
g11
S'-6*complexi*lam*v'
p1687
sg1327
g1576
sg13
g116
sg1330
Nsg1331
(g1319
tp1688
sbag0
(g1322
g7
Ntp1689
Rp1690
(dp1691
g11
S'(ee__exp__2*complexi*v)/(2.*sw__exp__2)'
p1692
sg1327
g1576
sg13
g254
sg1330
Nsg1331
(g1319
tp1693
sbag0
(g1322
g7
Ntp1694
Rp1695
(dp1696
g11
S'ee__exp__2*complexi*v + (cw__exp__2*ee__exp__2*complexi*v)/(2.*sw__exp__2) + (ee__exp__2*complexi*sw__exp__2*v)/(2.*cw__exp__2)'
p1697
sg1327
g1576
sg13
g360
sg1330
Nsg1331
(g1319
tp1698
sbag0
(g1322
g7
Ntp1699
Rp1700
(dp1701
g11
S'-((complexi*yb)/sqrt__2)'
p1702
sg1327
g1576
sg13
g685
sg1330
Nsg1331
(g1319
tp1703
sbag0
(g1322
g7
Ntp1704
Rp1705
(dp1706
g11
S'-((complexi*yt)/sqrt__2)'
p1707
sg1327
g1576
sg13
g931
sg1330
Nsg1331
(g1319
tp1708
sbag0
(g1322
g7
Ntp1709
Rp1710
(dp1711
g11
S'-((complexi*ytau)/sqrt__2)'
p1712
sg1327
g1576
sg13
g913
sg1330
Nsg1331
(g1319
tp1713
sbas(t(lp1714
g0
(g1322
g7
Ntp1715
Rp1716
(dp1717
g11
S'complexi*uusix'
p1718
sg1327
g1576
sg13
g1228
sg1330
Nsg1331
(tsbag0
(g1322
g7
Ntp1719
Rp1720
(dp1721
g11
S'complexi*ttsix'
p1722
sg1327
g1576
sg13
g1267
sg1330
Nsg1331
(tsbas(g1578
tp1723
(lp1724
g0
(g1322
g7
Ntp1725
Rp1726
(dp1727
g11
S'-G'
p1728
sg1327
g1576
sg13
g145
sg1330
Nsg1331
g1723
sbag0
(g1322
g7
Ntp1729
Rp1730
(dp1731
g11
S'complexi*G'
p1732
sg1327
g1576
sg13
g632
sg1330
Nsg1331
(g1578
tp1733
sbag0
(g1322
g7
Ntp1734
Rp1735
(dp1736
g11
S'complexi*G__exp__2'
p1737
sg1327
g1576
sg13
g184
sg1330
Nsg1331
(g1578
tp1738
sbag0
(g1322
g7
Ntp1739
Rp1740
(dp1741
g11
S'-complexi*G'
p1742
sg1327
g1576
sg13
g1304
sg1330
Nsg1331
(g1578
tp1743
sbasstp1744
Rp1745
.