ccopy_reg
_reconstructor
p0
(cmadgraph.core.base_objects
Model
p1
c__builtin__
dict
p2
(dp3
S'ref_dict_to0'
p4
(dp5
sS'interactions'
p6
g0
(cmadgraph.core.base_objects
InteractionList
p7
c__builtin__
list
p8
(lp9
g0
(cmadgraph.core.base_objects
Interaction
p10
g2
(dp11
S'particles'
p12
g0
(cmadgraph.core.base_objects
ParticleList
p13
g8
(lp14
g0
(cmadgraph.core.base_objects
Particle
p15
g2
(dp16
S'texname'
p17
S'\\phi'
p18
sS'propagating'
p19
I01
sS'name'
p20
S'h'
p21
sS'self_antipart'
p22
I01
sS'color'
p23
I1
sS'width'
p24
S'WH'
p25
sS'charge'
p26
F0.0
sS'mass'
p27
S'MH'
p28
sS'antiname'
p29
S'h'
p30
sS'LeptonNumber'
p31
I0
sS'line'
p32
S'dashed'
p33
sS'is_part'
p34
I01
sS'spin'
p35
I1
sS'antitexname'
p36
g18
sS'pdg_code'
p37
I25
stp38
Rp39
ag39
ag39
ag39
atp40
Rp41
sS'lorentz'
p42
(lp43
S'SSSS1'
p44
asg23
(lp45
g0
(cmadgraph.core.color_algebra
ColorString
p46
g8
(lp47
tp48
Rp49
(dp50
S'coeff'
p51
cfractions
Fraction
p52
(S'1'
p53
tp54
Rp55
sS'is_imaginary'
p56
I00
sS'Nc_power'
p57
I0
sbasS'id'
p58
I1
sS'orders'
p59
(dp60
S'QED'
p61
I2
ssS'couplings'
p62
(dp63
(I0
I0
tp64
S'GC_17'
p65
sstp66
Rp67
ag0
(g10
g2
(dp68
g12
g0
(g13
g8
(lp69
g39
ag39
ag39
atp70
Rp71
sg42
(lp72
S'SSS1'
p73
asg23
(lp74
g0
(g46
g8
(lp75
tp76
Rp77
(dp78
g51
g52
(g53
tp79
Rp80
sg56
I00
sg57
I0
sbasg58
I2
sg59
(dp81
g61
I1
ssg62
(dp82
(I0
I0
tp83
S'GC_63'
p84
sstp85
Rp86
ag0
(g10
g2
(dp87
g12
g0
(g13
g8
(lp88
g0
(g15
g2
(dp89
g17
S'G'
p90
sg19
I01
sg20
S'g'
p91
sg22
I01
sg23
I8
sg24
S'ZERO'
p92
sg26
F0.0
sg27
g92
sg29
S'g'
p93
sg31
I0
sg32
S'curly'
p94
sg34
I01
sg35
I3
sg36
g90
sg37
I21
stp95
Rp96
ag96
ag96
atp97
Rp98
sg42
(lp99
S'VVV1'
p100
asg23
(lp101
g0
(g46
g8
(lp102
cmadgraph.core.color_algebra
f
p103
(I0
I1
I2
tp104
Rp105
atp106
Rp107
(dp108
g51
g52
(g53
tp109
Rp110
sg56
I00
sg57
I0
sbasg58
I3
sg59
(dp111
S'QCD'
p112
I1
ssg62
(dp113
(I0
I0
tp114
S'GC_9'
p115
sstp116
Rp117
ag0
(g10
g2
(dp118
g12
g0
(g13
g8
(lp119
g96
ag96
ag96
ag96
atp120
Rp121
sg42
(lp122
S'VVVV1'
p123
aS'VVVV3'
p124
aS'VVVV4'
p125
asg23
(lp126
g0
(g46
g8
(lp127
g103
(I-1
I0
I1
tp128
Rp129
ag103
(I2
I3
I-1
tp130
Rp131
atp132
Rp133
(dp134
g51
g52
(g53
tp135
Rp136
sg56
I00
sg57
I0
sbag0
(g46
g8
(lp137
g103
(I-1
I0
I2
tp138
Rp139
ag103
(I1
I3
I-1
tp140
Rp141
atp142
Rp143
(dp144
g51
g52
(g53
tp145
Rp146
sg56
I00
sg57
I0
sbag0
(g46
g8
(lp147
g103
(I-1
I0
I3
tp148
Rp149
ag103
(I1
I2
I-1
tp150
Rp151
atp152
Rp153
(dp154
g51
g52
(g53
tp155
Rp156
sg56
I00
sg57
I0
sbasg58
I4
sg59
(dp157
g112
I2
ssg62
(dp158
(I0
I0
tp159
S'GC_11'
p160
s(I1
I1
tp161
g160
s(I2
I2
tp162
g160
sstp163
Rp164
ag0
(g10
g2
(dp165
g12
g0
(g13
g8
(lp166
g0
(g15
g2
(dp167
g17
S'A'
p168
sg19
I01
sg20
S'a'
p169
sg22
I01
sg23
I1
sg24
g92
sg26
F0.0
sg27
g92
sg29
S'a'
p170
sg31
I0
sg32
S'wavy'
p171
sg34
I01
sg35
I3
sg36
g168
sg37
I22
stp172
Rp173
ag0
(g15
g2
(dp174
g17
S'W+'
p175
sg34
I00
sg20
S'w+'
p176
sg22
I00
sg23
I1
sg24
S'WW'
p177
sg26
F1.0
sg27
S'MW'
p178
sg31
I0
sg29
S'w-'
p179
sg32
g171
sg19
I01
sg35
I3
sg36
g175
sg37
I24
stp180
Rp181
ag0
(g15
g2
(dp182
g17
g175
sg19
I01
sg20
g176
sg22
I00
sg23
I1
sg24
g177
sg26
F1.0
sg27
g178
sg29
g179
sg31
I0
sg32
g171
sg34
I01
sg35
I3
sg36
g175
sg37
I24
stp183
Rp184
atp185
Rp186
sg42
(lp187
g100
asg23
(lp188
g0
(g46
g8
(lp189
tp190
Rp191
(dp192
g51
g52
(g53
tp193
Rp194
sg56
I00
sg57
I0
sbasg58
I5
sg59
(dp195
g61
I1
ssg62
(dp196
(I0
I0
tp197
S'GC_49'
p198
sstp199
Rp200
ag0
(g10
g2
(dp201
g12
g0
(g13
g8
(lp202
g181
ag184
ag39
ag39
atp203
Rp204
sg42
(lp205
S'VVSS1'
p206
asg23
(lp207
g0
(g46
g8
(lp208
tp209
Rp210
(dp211
g51
g52
(g53
tp212
Rp213
sg56
I00
sg57
I0
sbasg58
I6
sg59
(dp214
g61
I2
ssg62
(dp215
(I0
I0
tp216
S'GC_20'
p217
sstp218
Rp219
ag0
(g10
g2
(dp220
g12
g0
(g13
g8
(lp221
g181
ag184
ag39
atp222
Rp223
sg42
(lp224
S'VVS1'
p225
asg23
(lp226
g0
(g46
g8
(lp227
tp228
Rp229
(dp230
g51
g52
(g53
tp231
Rp232
sg56
I00
sg57
I0
sbasg58
I7
sg59
(dp233
g61
I1
ssg62
(dp234
(I0
I0
tp235
S'GC_64'
p236
sstp237
Rp238
ag0
(g10
g2
(dp239
g12
g0
(g13
g8
(lp240
g173
ag173
ag181
ag184
atp241
Rp242
sg42
(lp243
S'VVVV2'
p244
asg23
(lp245
g0
(g46
g8
(lp246
tp247
Rp248
(dp249
g51
g52
(g53
tp250
Rp251
sg56
I00
sg57
I0
sbasg58
I8
sg59
(dp252
g61
I2
ssg62
(dp253
(I0
I0
tp254
S'GC_51'
p255
sstp256
Rp257
ag0
(g10
g2
(dp258
g12
g0
(g13
g8
(lp259
g181
ag184
ag0
(g15
g2
(dp260
g17
S'Z'
p261
sg19
I01
sg20
S'z'
p262
sg22
I01
sg23
I1
sg24
S'WZ'
p263
sg26
F0.0
sg27
S'MZ'
p264
sg29
S'z'
p265
sg31
I0
sg32
g171
sg34
I01
sg35
I3
sg36
g261
sg37
I23
stp266
Rp267
atp268
Rp269
sg42
(lp270
g100
asg23
(lp271
g0
(g46
g8
(lp272
tp273
Rp274
(dp275
g51
g52
(g53
tp276
Rp277
sg56
I00
sg57
I0
sbasg58
I9
sg59
(dp278
g61
I1
ssg62
(dp279
(I0
I0
tp280
S'GC_12'
p281
sstp282
Rp283
ag0
(g10
g2
(dp284
g12
g0
(g13
g8
(lp285
g181
ag181
ag184
ag184
atp286
Rp287
sg42
(lp288
g244
asg23
(lp289
g0
(g46
g8
(lp290
tp291
Rp292
(dp293
g51
g52
(g53
tp294
Rp295
sg56
I00
sg57
I0
sbasg58
I10
sg59
(dp296
g61
I2
ssg62
(dp297
(I0
I0
tp298
S'GC_13'
p299
sstp300
Rp301
ag0
(g10
g2
(dp302
g12
g0
(g13
g8
(lp303
g173
ag181
ag184
ag267
atp304
Rp305
sg42
(lp306
S'VVVV5'
p307
asg23
(lp308
g0
(g46
g8
(lp309
tp310
Rp311
(dp312
g51
g52
(g53
tp313
Rp314
sg56
I00
sg57
I0
sbasg58
I11
sg59
(dp315
g61
I2
ssg62
(dp316
(I0
I0
tp317
S'GC_50'
p318
sstp319
Rp320
ag0
(g10
g2
(dp321
g12
g0
(g13
g8
(lp322
g267
ag267
ag39
ag39
atp323
Rp324
sg42
(lp325
g206
asg23
(lp326
g0
(g46
g8
(lp327
tp328
Rp329
(dp330
g51
g52
(g53
tp331
Rp332
sg56
I00
sg57
I0
sbasg58
I12
sg59
(dp333
g61
I2
ssg62
(dp334
(I0
I0
tp335
S'GC_59'
p336
sstp337
Rp338
ag0
(g10
g2
(dp339
g12
g0
(g13
g8
(lp340
g267
ag267
ag39
atp341
Rp342
sg42
(lp343
g225
asg23
(lp344
g0
(g46
g8
(lp345
tp346
Rp347
(dp348
g51
g52
(g53
tp349
Rp350
sg56
I00
sg57
I0
sbasg58
I13
sg59
(dp351
g61
I1
ssg62
(dp352
(I0
I0
tp353
S'GC_67'
p354
sstp355
Rp356
ag0
(g10
g2
(dp357
g12
g0
(g13
g8
(lp358
g181
ag184
ag267
ag267
atp359
Rp360
sg42
(lp361
g244
asg23
(lp362
g0
(g46
g8
(lp363
tp364
Rp365
(dp366
g51
g52
(g53
tp367
Rp368
sg56
I00
sg57
I0
sbasg58
I14
sg59
(dp369
g61
I2
ssg62
(dp370
(I0
I0
tp371
S'GC_14'
p372
sstp373
Rp374
ag0
(g10
g2
(dp375
g12
g0
(g13
g8
(lp376
g0
(g15
g2
(dp377
g17
S'd'
p378
sg34
I00
sg20
S'd'
p379
sg22
I00
sg23
I3
sg24
g92
sg26
F-0.3333333333333333
sg27
S'MD'
p380
sg31
I0
sg29
S'd~'
p381
sg32
S'straight'
p382
sg19
I01
sg35
I2
sg36
g378
sg37
I1
stp383
Rp384
ag0
(g15
g2
(dp385
g17
g378
sg19
I01
sg20
g379
sg22
I00
sg23
I3
sg24
g92
sg26
F-0.3333333333333333
sg27
g380
sg29
g381
sg31
I0
sg32
g382
sg34
I01
sg35
I2
sg36
g378
sg37
I1
stp386
Rp387
ag173
atp388
Rp389
sg42
(lp390
S'FFV1'
p391
asg23
(lp392
g0
(g46
g8
(lp393
cmadgraph.core.color_algebra
T
p394
(I1
I0
tp395
Rp396
atp397
Rp398
(dp399
g51
g52
(g53
tp400
Rp401
sg56
I00
sg57
I0
sbasg58
I15
sg59
(dp402
g61
I1
ssg62
(dp403
(I0
I0
tp404
S'GC_1'
p405
sstp406
Rp407
ag0
(g10
g2
(dp408
g12
g0
(g13
g8
(lp409
g0
(g15
g2
(dp410
g17
S's'
p411
sg34
I00
sg20
S's'
p412
sg22
I00
sg23
I3
sg24
g92
sg26
F-0.3333333333333333
sg27
S'MS'
p413
sg31
I0
sg29
S's~'
p414
sg32
g382
sg19
I01
sg35
I2
sg36
g411
sg37
I3
stp415
Rp416
ag0
(g15
g2
(dp417
g17
g411
sg19
I01
sg20
g412
sg22
I00
sg23
I3
sg24
g92
sg26
F-0.3333333333333333
sg27
g413
sg29
g414
sg31
I0
sg32
g382
sg34
I01
sg35
I2
sg36
g411
sg37
I3
stp418
Rp419
ag173
atp420
Rp421
sg42
(lp422
g391
asg23
(lp423
g0
(g46
g8
(lp424
g394
(I1
I0
tp425
Rp426
atp427
Rp428
(dp429
g51
g52
(g53
tp430
Rp431
sg56
I00
sg57
I0
sbasg58
I16
sg59
g402
sg62
(dp432
(I0
I0
tp433
g405
sstp434
Rp435
ag0
(g10
g2
(dp436
g12
g0
(g13
g8
(lp437
g0
(g15
g2
(dp438
g17
S'b'
p439
sg34
I00
sg20
S'b'
p440
sg22
I00
sg23
I3
sg24
g92
sg26
F-0.3333333333333333
sg27
S'MB'
p441
sg31
I0
sg29
S'b~'
p442
sg32
g382
sg19
I01
sg35
I2
sg36
g439
sg37
I5
stp443
Rp444
ag0
(g15
g2
(dp445
g17
g439
sg19
I01
sg20
g440
sg22
I00
sg23
I3
sg24
g92
sg26
F-0.3333333333333333
sg27
g441
sg29
g442
sg31
I0
sg32
g382
sg34
I01
sg35
I2
sg36
g439
sg37
I5
stp446
Rp447
ag173
atp448
Rp449
sg42
(lp450
g391
asg23
(lp451
g0
(g46
g8
(lp452
g394
(I1
I0
tp453
Rp454
atp455
Rp456
(dp457
g51
g52
(g53
tp458
Rp459
sg56
I00
sg57
I0
sbasg58
I17
sg59
g402
sg62
(dp460
(I0
I0
tp461
g405
sstp462
Rp463
ag0
(g10
g2
(dp464
g12
g0
(g13
g8
(lp465
g0
(g15
g2
(dp466
g17
S'e-'
p467
sg34
I00
sg20
S'e-'
p468
sg22
I00
sg23
I1
sg24
g92
sg26
F-1.0
sg27
S'Me'
p469
sg31
I1
sg29
S'e+'
p470
sg32
g382
sg19
I01
sg35
I2
sg36
g467
sg37
I11
stp471
Rp472
ag0
(g15
g2
(dp473
g17
g467
sg19
I01
sg20
g468
sg22
I00
sg23
I1
sg24
g92
sg26
F-1.0
sg27
g469
sg29
g470
sg31
I1
sg32
g382
sg34
I01
sg35
I2
sg36
g467
sg37
I11
stp474
Rp475
ag173
atp476
Rp477
sg42
(lp478
g391
asg23
(lp479
g0
(g46
g8
(lp480
tp481
Rp482
(dp483
g51
g52
(g53
tp484
Rp485
sg56
I00
sg57
I0
sbasg58
I18
sg59
(dp486
g61
I1
ssg62
(dp487
(I0
I0
tp488
S'GC_3'
p489
sstp490
Rp491
ag0
(g10
g2
(dp492
g12
g0
(g13
g8
(lp493
g0
(g15
g2
(dp494
g17
S'm-'
p495
sg34
I00
sg20
S'm-'
p496
sg22
I00
sg23
I1
sg24
g92
sg26
F-1.0
sg27
S'MM'
p497
sg31
I1
sg29
S'm+'
p498
sg32
g382
sg19
I01
sg35
I2
sg36
g495
sg37
I13
stp499
Rp500
ag0
(g15
g2
(dp501
g17
g495
sg19
I01
sg20
g496
sg22
I00
sg23
I1
sg24
g92
sg26
F-1.0
sg27
g497
sg29
g498
sg31
I1
sg32
g382
sg34
I01
sg35
I2
sg36
g495
sg37
I13
stp502
Rp503
ag173
atp504
Rp505
sg42
(lp506
g391
asg23
(lp507
g0
(g46
g8
(lp508
tp509
Rp510
(dp511
g51
g52
(g53
tp512
Rp513
sg56
I00
sg57
I0
sbasg58
I19
sg59
g486
sg62
(dp514
(I0
I0
tp515
g489
sstp516
Rp517
ag0
(g10
g2
(dp518
g12
g0
(g13
g8
(lp519
g0
(g15
g2
(dp520
g17
S'tt-'
p521
sg34
I00
sg20
S'tt-'
p522
sg22
I00
sg23
I1
sg24
S'WTA'
p523
sg26
F-1.0
sg27
S'MTA'
p524
sg31
I1
sg29
S'tt+'
p525
sg32
g382
sg19
I01
sg35
I2
sg36
g521
sg37
I15
stp526
Rp527
ag0
(g15
g2
(dp528
g17
g521
sg19
I01
sg20
g522
sg22
I00
sg23
I1
sg24
g523
sg26
F-1.0
sg27
g524
sg29
g525
sg31
I1
sg32
g382
sg34
I01
sg35
I2
sg36
g521
sg37
I15
stp529
Rp530
ag173
atp531
Rp532
sg42
(lp533
g391
asg23
(lp534
g0
(g46
g8
(lp535
tp536
Rp537
(dp538
g51
g52
(g53
tp539
Rp540
sg56
I00
sg57
I0
sbasg58
I20
sg59
g486
sg62
(dp541
(I0
I0
tp542
g489
sstp543
Rp544
ag0
(g10
g2
(dp545
g12
g0
(g13
g8
(lp546
g0
(g15
g2
(dp547
g17
S'u'
p548
sg34
I00
sg20
S'u'
p549
sg22
I00
sg23
I3
sg24
g92
sg26
F0.6666666666666666
sg27
S'MU'
p550
sg31
I0
sg29
S'u~'
p551
sg32
g382
sg19
I01
sg35
I2
sg36
g548
sg37
I2
stp552
Rp553
ag0
(g15
g2
(dp554
g17
g548
sg19
I01
sg20
g549
sg22
I00
sg23
I3
sg24
g92
sg26
F0.6666666666666666
sg27
g550
sg29
g551
sg31
I0
sg32
g382
sg34
I01
sg35
I2
sg36
g548
sg37
I2
stp555
Rp556
ag173
atp557
Rp558
sg42
(lp559
g391
asg23
(lp560
g0
(g46
g8
(lp561
g394
(I1
I0
tp562
Rp563
atp564
Rp565
(dp566
g51
g52
(g53
tp567
Rp568
sg56
I00
sg57
I0
sbasg58
I21
sg59
(dp569
g61
I1
ssg62
(dp570
(I0
I0
tp571
S'GC_2'
p572
sstp573
Rp574
ag0
(g10
g2
(dp575
g12
g0
(g13
g8
(lp576
g0
(g15
g2
(dp577
g17
S'c'
p578
sg34
I00
sg20
S'c'
p579
sg22
I00
sg23
I3
sg24
g92
sg26
F0.6666666666666666
sg27
S'MC'
p580
sg31
I0
sg29
S'c~'
p581
sg32
g382
sg19
I01
sg35
I2
sg36
g578
sg37
I4
stp582
Rp583
ag0
(g15
g2
(dp584
g17
g578
sg19
I01
sg20
g579
sg22
I00
sg23
I3
sg24
g92
sg26
F0.6666666666666666
sg27
g580
sg29
g581
sg31
I0
sg32
g382
sg34
I01
sg35
I2
sg36
g578
sg37
I4
stp585
Rp586
ag173
atp587
Rp588
sg42
(lp589
g391
asg23
(lp590
g0
(g46
g8
(lp591
g394
(I1
I0
tp592
Rp593
atp594
Rp595
(dp596
g51
g52
(g53
tp597
Rp598
sg56
I00
sg57
I0
sbasg58
I22
sg59
g569
sg62
(dp599
(I0
I0
tp600
g572
sstp601
Rp602
ag0
(g10
g2
(dp603
g12
g0
(g13
g8
(lp604
g0
(g15
g2
(dp605
g17
S't'
p606
sg34
I00
sg20
S't'
p607
sg22
I00
sg23
I3
sg24
S'WT'
p608
sg26
F0.6666666666666666
sg27
S'MT'
p609
sg31
I0
sg29
S't~'
p610
sg32
g382
sg19
I01
sg35
I2
sg36
g606
sg37
I6
stp611
Rp612
ag0
(g15
g2
(dp613
g17
g606
sg19
I01
sg20
g607
sg22
I00
sg23
I3
sg24
g608
sg26
F0.6666666666666666
sg27
g609
sg29
g610
sg31
I0
sg32
g382
sg34
I01
sg35
I2
sg36
g606
sg37
I6
stp614
Rp615
ag173
atp616
Rp617
sg42
(lp618
g391
asg23
(lp619
g0
(g46
g8
(lp620
g394
(I1
I0
tp621
Rp622
atp623
Rp624
(dp625
g51
g52
(g53
tp626
Rp627
sg56
I00
sg57
I0
sbasg58
I23
sg59
g569
sg62
(dp628
(I0
I0
tp629
g572
sstp630
Rp631
ag0
(g10
g2
(dp632
g12
g0
(g13
g8
(lp633
g384
ag387
ag96
atp634
Rp635
sg42
(lp636
g391
asg23
(lp637
g0
(g46
g8
(lp638
g394
(I2
I1
I0
tp639
Rp640
atp641
Rp642
(dp643
g51
g52
(g53
tp644
Rp645
sg56
I00
sg57
I0
sbasg58
I24
sg59
(dp646
g112
I1
ssg62
(dp647
(I0
I0
tp648
S'GC_10'
p649
sstp650
Rp651
ag0
(g10
g2
(dp652
g12
g0
(g13
g8
(lp653
g416
ag419
ag96
atp654
Rp655
sg42
(lp656
g391
asg23
(lp657
g0
(g46
g8
(lp658
g394
(I2
I1
I0
tp659
Rp660
atp661
Rp662
(dp663
g51
g52
(g53
tp664
Rp665
sg56
I00
sg57
I0
sbasg58
I25
sg59
g646
sg62
(dp666
(I0
I0
tp667
g649
sstp668
Rp669
ag0
(g10
g2
(dp670
g12
g0
(g13
g8
(lp671
g444
ag447
ag96
atp672
Rp673
sg42
(lp674
g391
asg23
(lp675
g0
(g46
g8
(lp676
g394
(I2
I1
I0
tp677
Rp678
atp679
Rp680
(dp681
g51
g52
(g53
tp682
Rp683
sg56
I00
sg57
I0
sbasg58
I26
sg59
g646
sg62
(dp684
(I0
I0
tp685
g649
sstp686
Rp687
ag0
(g10
g2
(dp688
g12
g0
(g13
g8
(lp689
g384
ag387
ag39
atp690
Rp691
sg42
(lp692
S'FFS2'
p693
asg23
(lp694
g0
(g46
g8
(lp695
g394
(I1
I0
tp696
Rp697
atp698
Rp699
(dp700
g51
g52
(g53
tp701
Rp702
sg56
I00
sg57
I0
sbasg58
I27
sg59
(dp703
g61
I1
ssg62
(dp704
(I0
I0
tp705
S'GC_78'
p706
sstp707
Rp708
ag0
(g10
g2
(dp709
g12
g0
(g13
g8
(lp710
g416
ag419
ag39
atp711
Rp712
sg42
(lp713
g693
asg23
(lp714
g0
(g46
g8
(lp715
g394
(I1
I0
tp716
Rp717
atp718
Rp719
(dp720
g51
g52
(g53
tp721
Rp722
sg56
I00
sg57
I0
sbasg58
I28
sg59
(dp723
g61
I1
ssg62
(dp724
(I0
I0
tp725
S'GC_91'
p726
sstp727
Rp728
ag0
(g10
g2
(dp729
g12
g0
(g13
g8
(lp730
g444
ag447
ag39
atp731
Rp732
sg42
(lp733
g693
asg23
(lp734
g0
(g46
g8
(lp735
g394
(I1
I0
tp736
Rp737
atp738
Rp739
(dp740
g51
g52
(g53
tp741
Rp742
sg56
I00
sg57
I0
sbasg58
I29
sg59
(dp743
g61
I1
ssg62
(dp744
(I0
I0
tp745
S'GC_68'
p746
sstp747
Rp748
ag0
(g10
g2
(dp749
g12
g0
(g13
g8
(lp750
g384
ag387
ag267
atp751
Rp752
sg42
(lp753
S'FFV2'
p754
aS'FFV3'
p755
asg23
(lp756
g0
(g46
g8
(lp757
g394
(I1
I0
tp758
Rp759
atp760
Rp761
(dp762
g51
g52
(g53
tp763
Rp764
sg56
I00
sg57
I0
sbasg58
I30
sg59
(dp765
g61
I1
ssg62
(dp766
(I0
I1
tp767
S'GC_47'
p768
s(I0
I0
tp769
S'GC_34'
p770
sstp771
Rp772
ag0
(g10
g2
(dp773
g12
g0
(g13
g8
(lp774
g416
ag419
ag267
atp775
Rp776
sg42
(lp777
g754
ag755
asg23
(lp778
g0
(g46
g8
(lp779
g394
(I1
I0
tp780
Rp781
atp782
Rp783
(dp784
g51
g52
(g53
tp785
Rp786
sg56
I00
sg57
I0
sbasg58
I31
sg59
g765
sg62
(dp787
(I0
I1
tp788
g768
s(I0
I0
tp789
g770
sstp790
Rp791
ag0
(g10
g2
(dp792
g12
g0
(g13
g8
(lp793
g444
ag447
ag267
atp794
Rp795
sg42
(lp796
g754
ag755
asg23
(lp797
g0
(g46
g8
(lp798
g394
(I1
I0
tp799
Rp800
atp801
Rp802
(dp803
g51
g52
(g53
tp804
Rp805
sg56
I00
sg57
I0
sbasg58
I32
sg59
g765
sg62
(dp806
(I0
I1
tp807
g768
s(I0
I0
tp808
g770
sstp809
Rp810
ag0
(g10
g2
(dp811
g12
g0
(g13
g8
(lp812
g384
ag556
ag181
atp813
Rp814
sg42
(lp815
g754
asg23
(lp816
g0
(g46
g8
(lp817
g394
(I1
I0
tp818
Rp819
atp820
Rp821
(dp822
g51
g52
(g53
tp823
Rp824
sg56
I00
sg57
I0
sbasg58
I33
sg59
(dp825
g61
I1
ssg62
(dp826
(I0
I0
tp827
S'GC_25'
p828
sstp829
Rp830
ag0
(g10
g2
(dp831
g12
g0
(g13
g8
(lp832
g384
ag586
ag181
atp833
Rp834
sg42
(lp835
g754
asg23
(lp836
g0
(g46
g8
(lp837
g394
(I1
I0
tp838
Rp839
atp840
Rp841
(dp842
g51
g52
(g53
tp843
Rp844
sg56
I00
sg57
I0
sbasg58
I34
sg59
(dp845
g61
I1
ssg62
(dp846
(I0
I0
tp847
S'GC_28'
p848
sstp849
Rp850
ag0
(g10
g2
(dp851
g12
g0
(g13
g8
(lp852
g384
ag615
ag181
atp853
Rp854
sg42
(lp855
g754
asg23
(lp856
g0
(g46
g8
(lp857
g394
(I1
I0
tp858
Rp859
atp860
Rp861
(dp862
g51
g52
(g53
tp863
Rp864
sg56
I00
sg57
I0
sbasg58
I35
sg59
(dp865
g61
I1
ssg62
(dp866
(I0
I0
tp867
S'GC_31'
p868
sstp869
Rp870
ag0
(g10
g2
(dp871
g12
g0
(g13
g8
(lp872
g416
ag556
ag181
atp873
Rp874
sg42
(lp875
g754
asg23
(lp876
g0
(g46
g8
(lp877
g394
(I1
I0
tp878
Rp879
atp880
Rp881
(dp882
g51
g52
(g53
tp883
Rp884
sg56
I00
sg57
I0
sbasg58
I36
sg59
(dp885
g61
I1
ssg62
(dp886
(I0
I0
tp887
S'GC_26'
p888
sstp889
Rp890
ag0
(g10
g2
(dp891
g12
g0
(g13
g8
(lp892
g416
ag586
ag181
atp893
Rp894
sg42
(lp895
g754
asg23
(lp896
g0
(g46
g8
(lp897
g394
(I1
I0
tp898
Rp899
atp900
Rp901
(dp902
g51
g52
(g53
tp903
Rp904
sg56
I00
sg57
I0
sbasg58
I37
sg59
(dp905
g61
I1
ssg62
(dp906
(I0
I0
tp907
S'GC_29'
p908
sstp909
Rp910
ag0
(g10
g2
(dp911
g12
g0
(g13
g8
(lp912
g416
ag615
ag181
atp913
Rp914
sg42
(lp915
g754
asg23
(lp916
g0
(g46
g8
(lp917
g394
(I1
I0
tp918
Rp919
atp920
Rp921
(dp922
g51
g52
(g53
tp923
Rp924
sg56
I00
sg57
I0
sbasg58
I38
sg59
(dp925
g61
I1
ssg62
(dp926
(I0
I0
tp927
S'GC_32'
p928
sstp929
Rp930
ag0
(g10
g2
(dp931
g12
g0
(g13
g8
(lp932
g444
ag556
ag181
atp933
Rp934
sg42
(lp935
g754
asg23
(lp936
g0
(g46
g8
(lp937
g394
(I1
I0
tp938
Rp939
atp940
Rp941
(dp942
g51
g52
(g53
tp943
Rp944
sg56
I00
sg57
I0
sbasg58
I39
sg59
(dp945
g61
I1
ssg62
(dp946
(I0
I0
tp947
S'GC_27'
p948
sstp949
Rp950
ag0
(g10
g2
(dp951
g12
g0
(g13
g8
(lp952
g444
ag586
ag181
atp953
Rp954
sg42
(lp955
g754
asg23
(lp956
g0
(g46
g8
(lp957
g394
(I1
I0
tp958
Rp959
atp960
Rp961
(dp962
g51
g52
(g53
tp963
Rp964
sg56
I00
sg57
I0
sbasg58
I40
sg59
(dp965
g61
I1
ssg62
(dp966
(I0
I0
tp967
S'GC_30'
p968
sstp969
Rp970
ag0
(g10
g2
(dp971
g12
g0
(g13
g8
(lp972
g444
ag615
ag181
atp973
Rp974
sg42
(lp975
g754
asg23
(lp976
g0
(g46
g8
(lp977
g394
(I1
I0
tp978
Rp979
atp980
Rp981
(dp982
g51
g52
(g53
tp983
Rp984
sg56
I00
sg57
I0
sbasg58
I41
sg59
(dp985
g61
I1
ssg62
(dp986
(I0
I0
tp987
S'GC_33'
p988
sstp989
Rp990
ag0
(g10
g2
(dp991
g12
g0
(g13
g8
(lp992
g553
ag387
ag184
atp993
Rp994
sg42
(lp995
g754
asg23
(lp996
g0
(g46
g8
(lp997
g394
(I1
I0
tp998
Rp999
atp1000
Rp1001
(dp1002
g51
g52
(g53
tp1003
Rp1004
sg56
I00
sg57
I0
sbasg58
I42
sg59
(dp1005
g61
I1
ssg62
(dp1006
(I0
I0
tp1007
S'GC_110'
p1008
sstp1009
Rp1010
ag0
(g10
g2
(dp1011
g12
g0
(g13
g8
(lp1012
g583
ag387
ag184
atp1013
Rp1014
sg42
(lp1015
g754
asg23
(lp1016
g0
(g46
g8
(lp1017
g394
(I1
I0
tp1018
Rp1019
atp1020
Rp1021
(dp1022
g51
g52
(g53
tp1023
Rp1024
sg56
I00
sg57
I0
sbasg58
I43
sg59
(dp1025
g61
I1
ssg62
(dp1026
(I0
I0
tp1027
S'GC_119'
p1028
sstp1029
Rp1030
ag0
(g10
g2
(dp1031
g12
g0
(g13
g8
(lp1032
g612
ag387
ag184
atp1033
Rp1034
sg42
(lp1035
g754
asg23
(lp1036
g0
(g46
g8
(lp1037
g394
(I1
I0
tp1038
Rp1039
atp1040
Rp1041
(dp1042
g51
g52
(g53
tp1043
Rp1044
sg56
I00
sg57
I0
sbasg58
I44
sg59
(dp1045
g61
I1
ssg62
(dp1046
(I0
I0
tp1047
S'GC_128'
p1048
sstp1049
Rp1050
ag0
(g10
g2
(dp1051
g12
g0
(g13
g8
(lp1052
g553
ag419
ag184
atp1053
Rp1054
sg42
(lp1055
g754
asg23
(lp1056
g0
(g46
g8
(lp1057
g394
(I1
I0
tp1058
Rp1059
atp1060
Rp1061
(dp1062
g51
g52
(g53
tp1063
Rp1064
sg56
I00
sg57
I0
sbasg58
I45
sg59
(dp1065
g61
I1
ssg62
(dp1066
(I0
I0
tp1067
S'GC_113'
p1068
sstp1069
Rp1070
ag0
(g10
g2
(dp1071
g12
g0
(g13
g8
(lp1072
g583
ag419
ag184
atp1073
Rp1074
sg42
(lp1075
g754
asg23
(lp1076
g0
(g46
g8
(lp1077
g394
(I1
I0
tp1078
Rp1079
atp1080
Rp1081
(dp1082
g51
g52
(g53
tp1083
Rp1084
sg56
I00
sg57
I0
sbasg58
I46
sg59
(dp1085
g61
I1
ssg62
(dp1086
(I0
I0
tp1087
S'GC_122'
p1088
sstp1089
Rp1090
ag0
(g10
g2
(dp1091
g12
g0
(g13
g8
(lp1092
g612
ag419
ag184
atp1093
Rp1094
sg42
(lp1095
g754
asg23
(lp1096
g0
(g46
g8
(lp1097
g394
(I1
I0
tp1098
Rp1099
atp1100
Rp1101
(dp1102
g51
g52
(g53
tp1103
Rp1104
sg56
I00
sg57
I0
sbasg58
I47
sg59
(dp1105
g61
I1
ssg62
(dp1106
(I0
I0
tp1107
S'GC_131'
p1108
sstp1109
Rp1110
ag0
(g10
g2
(dp1111
g12
g0
(g13
g8
(lp1112
g553
ag447
ag184
atp1113
Rp1114
sg42
(lp1115
g754
asg23
(lp1116
g0
(g46
g8
(lp1117
g394
(I1
I0
tp1118
Rp1119
atp1120
Rp1121
(dp1122
g51
g52
(g53
tp1123
Rp1124
sg56
I00
sg57
I0
sbasg58
I48
sg59
(dp1125
g61
I1
ssg62
(dp1126
(I0
I0
tp1127
S'GC_116'
p1128
sstp1129
Rp1130
ag0
(g10
g2
(dp1131
g12
g0
(g13
g8
(lp1132
g583
ag447
ag184
atp1133
Rp1134
sg42
(lp1135
g754
asg23
(lp1136
g0
(g46
g8
(lp1137
g394
(I1
I0
tp1138
Rp1139
atp1140
Rp1141
(dp1142
g51
g52
(g53
tp1143
Rp1144
sg56
I00
sg57
I0
sbasg58
I49
sg59
(dp1145
g61
I1
ssg62
(dp1146
(I0
I0
tp1147
S'GC_125'
p1148
sstp1149
Rp1150
ag0
(g10
g2
(dp1151
g12
g0
(g13
g8
(lp1152
g612
ag447
ag184
atp1153
Rp1154
sg42
(lp1155
g754
asg23
(lp1156
g0
(g46
g8
(lp1157
g394
(I1
I0
tp1158
Rp1159
atp1160
Rp1161
(dp1162
g51
g52
(g53
tp1163
Rp1164
sg56
I00
sg57
I0
sbasg58
I50
sg59
(dp1165
g61
I1
ssg62
(dp1166
(I0
I0
tp1167
S'GC_134'
p1168
sstp1169
Rp1170
ag0
(g10
g2
(dp1171
g12
g0
(g13
g8
(lp1172
g553
ag556
ag96
atp1173
Rp1174
sg42
(lp1175
g391
asg23
(lp1176
g0
(g46
g8
(lp1177
g394
(I2
I1
I0
tp1178
Rp1179
atp1180
Rp1181
(dp1182
g51
g52
(g53
tp1183
Rp1184
sg56
I00
sg57
I0
sbasg58
I51
sg59
g646
sg62
(dp1185
(I0
I0
tp1186
g649
sstp1187
Rp1188
ag0
(g10
g2
(dp1189
g12
g0
(g13
g8
(lp1190
g583
ag586
ag96
atp1191
Rp1192
sg42
(lp1193
g391
asg23
(lp1194
g0
(g46
g8
(lp1195
g394
(I2
I1
I0
tp1196
Rp1197
atp1198
Rp1199
(dp1200
g51
g52
(g53
tp1201
Rp1202
sg56
I00
sg57
I0
sbasg58
I52
sg59
g646
sg62
(dp1203
(I0
I0
tp1204
g649
sstp1205
Rp1206
ag0
(g10
g2
(dp1207
g12
g0
(g13
g8
(lp1208
g612
ag615
ag96
atp1209
Rp1210
sg42
(lp1211
g391
asg23
(lp1212
g0
(g46
g8
(lp1213
g394
(I2
I1
I0
tp1214
Rp1215
atp1216
Rp1217
(dp1218
g51
g52
(g53
tp1219
Rp1220
sg56
I00
sg57
I0
sbasg58
I53
sg59
g646
sg62
(dp1221
(I0
I0
tp1222
g649
sstp1223
Rp1224
ag0
(g10
g2
(dp1225
g12
g0
(g13
g8
(lp1226
g472
ag475
ag39
atp1227
Rp1228
sg42
(lp1229
g693
asg23
(lp1230
g0
(g46
g8
(lp1231
tp1232
Rp1233
(dp1234
g51
g52
(g53
tp1235
Rp1236
sg56
I00
sg57
I0
sbasg58
I54
sg59
(dp1237
g61
I1
ssg62
(dp1238
(I0
I0
tp1239
S'GC_85'
p1240
sstp1241
Rp1242
ag0
(g10
g2
(dp1243
g12
g0
(g13
g8
(lp1244
g500
ag503
ag39
atp1245
Rp1246
sg42
(lp1247
g693
asg23
(lp1248
g0
(g46
g8
(lp1249
tp1250
Rp1251
(dp1252
g51
g52
(g53
tp1253
Rp1254
sg56
I00
sg57
I0
sbasg58
I55
sg59
(dp1255
g61
I1
ssg62
(dp1256
(I0
I0
tp1257
S'GC_89'
p1258
sstp1259
Rp1260
ag0
(g10
g2
(dp1261
g12
g0
(g13
g8
(lp1262
g527
ag530
ag39
atp1263
Rp1264
sg42
(lp1265
g693
asg23
(lp1266
g0
(g46
g8
(lp1267
tp1268
Rp1269
(dp1270
g51
g52
(g53
tp1271
Rp1272
sg56
I00
sg57
I0
sbasg58
I56
sg59
(dp1273
g61
I1
ssg62
(dp1274
(I0
I0
tp1275
S'GC_103'
p1276
sstp1277
Rp1278
ag0
(g10
g2
(dp1279
g12
g0
(g13
g8
(lp1280
g553
ag556
ag39
atp1281
Rp1282
sg42
(lp1283
g693
asg23
(lp1284
g0
(g46
g8
(lp1285
g394
(I1
I0
tp1286
Rp1287
atp1288
Rp1289
(dp1290
g51
g52
(g53
tp1291
Rp1292
sg56
I00
sg57
I0
sbasg58
I57
sg59
(dp1293
g61
I1
ssg62
(dp1294
(I0
I0
tp1295
S'GC_106'
p1296
sstp1297
Rp1298
ag0
(g10
g2
(dp1299
g12
g0
(g13
g8
(lp1300
g583
ag586
ag39
atp1301
Rp1302
sg42
(lp1303
g693
asg23
(lp1304
g0
(g46
g8
(lp1305
g394
(I1
I0
tp1306
Rp1307
atp1308
Rp1309
(dp1310
g51
g52
(g53
tp1311
Rp1312
sg56
I00
sg57
I0
sbasg58
I58
sg59
(dp1313
g61
I1
ssg62
(dp1314
(I0
I0
tp1315
S'GC_74'
p1316
sstp1317
Rp1318
ag0
(g10
g2
(dp1319
g12
g0
(g13
g8
(lp1320
g612
ag615
ag39
atp1321
Rp1322
sg42
(lp1323
g693
asg23
(lp1324
g0
(g46
g8
(lp1325
g394
(I1
I0
tp1326
Rp1327
atp1328
Rp1329
(dp1330
g51
g52
(g53
tp1331
Rp1332
sg56
I00
sg57
I0
sbasg58
I59
sg59
(dp1333
g61
I1
ssg62
(dp1334
(I0
I0
tp1335
S'GC_97'
p1336
sstp1337
Rp1338
ag0
(g10
g2
(dp1339
g12
g0
(g13
g8
(lp1340
g472
ag475
ag267
atp1341
Rp1342
sg42
(lp1343
g754
aS'FFV4'
p1344
asg23
(lp1345
g0
(g46
g8
(lp1346
tp1347
Rp1348
(dp1349
g51
g52
(g53
tp1350
Rp1351
sg56
I00
sg57
I0
sbasg58
I60
sg59
(dp1352
g61
I1
ssg62
(dp1353
(I0
I1
tp1354
S'GC_48'
p1355
s(I0
I0
tp1356
g770
sstp1357
Rp1358
ag0
(g10
g2
(dp1359
g12
g0
(g13
g8
(lp1360
g500
ag503
ag267
atp1361
Rp1362
sg42
(lp1363
g754
ag1344
asg23
(lp1364
g0
(g46
g8
(lp1365
tp1366
Rp1367
(dp1368
g51
g52
(g53
tp1369
Rp1370
sg56
I00
sg57
I0
sbasg58
I61
sg59
g1352
sg62
(dp1371
(I0
I1
tp1372
g1355
s(I0
I0
tp1373
g770
sstp1374
Rp1375
ag0
(g10
g2
(dp1376
g12
g0
(g13
g8
(lp1377
g527
ag530
ag267
atp1378
Rp1379
sg42
(lp1380
g754
ag1344
asg23
(lp1381
g0
(g46
g8
(lp1382
tp1383
Rp1384
(dp1385
g51
g52
(g53
tp1386
Rp1387
sg56
I00
sg57
I0
sbasg58
I62
sg59
g1352
sg62
(dp1388
(I0
I1
tp1389
g1355
s(I0
I0
tp1390
g770
sstp1391
Rp1392
ag0
(g10
g2
(dp1393
g12
g0
(g13
g8
(lp1394
g472
ag0
(g15
g2
(dp1395
g17
S've'
p1396
sg19
I01
sg20
S've'
p1397
sg22
I00
sg23
I1
sg24
g92
sg26
F0.0
sg27
g92
sg29
S've~'
p1398
sg31
I1
sg32
g382
sg34
I01
sg35
I2
sg36
g1396
sg37
I12
stp1399
Rp1400
ag181
atp1401
Rp1402
sg42
(lp1403
g754
asg23
(lp1404
g0
(g46
g8
(lp1405
tp1406
Rp1407
(dp1408
g51
g52
(g53
tp1409
Rp1410
sg56
I00
sg57
I0
sbasg58
I63
sg59
(dp1411
g61
I1
ssg62
(dp1412
(I0
I0
tp1413
S'GC_24'
p1414
sstp1415
Rp1416
ag0
(g10
g2
(dp1417
g12
g0
(g13
g8
(lp1418
g500
ag0
(g15
g2
(dp1419
g17
S'vm'
p1420
sg19
I01
sg20
S'vm'
p1421
sg22
I00
sg23
I1
sg24
g92
sg26
F0.0
sg27
g92
sg29
S'vm~'
p1422
sg31
I1
sg32
g382
sg34
I01
sg35
I2
sg36
g1420
sg37
I14
stp1423
Rp1424
ag181
atp1425
Rp1426
sg42
(lp1427
g754
asg23
(lp1428
g0
(g46
g8
(lp1429
tp1430
Rp1431
(dp1432
g51
g52
(g53
tp1433
Rp1434
sg56
I00
sg57
I0
sbasg58
I64
sg59
g1411
sg62
(dp1435
(I0
I0
tp1436
g1414
sstp1437
Rp1438
ag0
(g10
g2
(dp1439
g12
g0
(g13
g8
(lp1440
g527
ag0
(g15
g2
(dp1441
g17
S'vt'
p1442
sg19
I01
sg20
S'vt'
p1443
sg22
I00
sg23
I1
sg24
g92
sg26
F0.0
sg27
g92
sg29
S'vt~'
p1444
sg31
I1
sg32
g382
sg34
I01
sg35
I2
sg36
g1442
sg37
I16
stp1445
Rp1446
ag181
atp1447
Rp1448
sg42
(lp1449
g754
asg23
(lp1450
g0
(g46
g8
(lp1451
tp1452
Rp1453
(dp1454
g51
g52
(g53
tp1455
Rp1456
sg56
I00
sg57
I0
sbasg58
I65
sg59
g1411
sg62
(dp1457
(I0
I0
tp1458
g1414
sstp1459
Rp1460
ag0
(g10
g2
(dp1461
g12
g0
(g13
g8
(lp1462
g0
(g15
g2
(dp1463
g17
g1396
sg34
I00
sg20
g1397
sg22
I00
sg23
I1
sg24
g92
sg26
F0.0
sg27
g92
sg31
I1
sg29
g1398
sg32
g382
sg19
I01
sg35
I2
sg36
g1396
sg37
I12
stp1464
Rp1465
ag475
ag184
atp1466
Rp1467
sg42
(lp1468
g754
asg23
(lp1469
g0
(g46
g8
(lp1470
tp1471
Rp1472
(dp1473
g51
g52
(g53
tp1474
Rp1475
sg56
I00
sg57
I0
sbasg58
I66
sg59
g1411
sg62
(dp1476
(I0
I0
tp1477
g1414
sstp1478
Rp1479
ag0
(g10
g2
(dp1480
g12
g0
(g13
g8
(lp1481
g0
(g15
g2
(dp1482
g17
g1420
sg34
I00
sg20
g1421
sg22
I00
sg23
I1
sg24
g92
sg26
F0.0
sg27
g92
sg31
I1
sg29
g1422
sg32
g382
sg19
I01
sg35
I2
sg36
g1420
sg37
I14
stp1483
Rp1484
ag503
ag184
atp1485
Rp1486
sg42
(lp1487
g754
asg23
(lp1488
g0
(g46
g8
(lp1489
tp1490
Rp1491
(dp1492
g51
g52
(g53
tp1493
Rp1494
sg56
I00
sg57
I0
sbasg58
I67
sg59
g1411
sg62
(dp1495
(I0
I0
tp1496
g1414
sstp1497
Rp1498
ag0
(g10
g2
(dp1499
g12
g0
(g13
g8
(lp1500
g0
(g15
g2
(dp1501
g17
g1442
sg34
I00
sg20
g1443
sg22
I00
sg23
I1
sg24
g92
sg26
F0.0
sg27
g92
sg31
I1
sg29
g1444
sg32
g382
sg19
I01
sg35
I2
sg36
g1442
sg37
I16
stp1502
Rp1503
ag530
ag184
atp1504
Rp1505
sg42
(lp1506
g754
asg23
(lp1507
g0
(g46
g8
(lp1508
tp1509
Rp1510
(dp1511
g51
g52
(g53
tp1512
Rp1513
sg56
I00
sg57
I0
sbasg58
I68
sg59
g1411
sg62
(dp1514
(I0
I0
tp1515
g1414
sstp1516
Rp1517
ag0
(g10
g2
(dp1518
g12
g0
(g13
g8
(lp1519
g553
ag556
ag267
atp1520
Rp1521
sg42
(lp1522
g754
aS'FFV5'
p1523
asg23
(lp1524
g0
(g46
g8
(lp1525
g394
(I1
I0
tp1526
Rp1527
atp1528
Rp1529
(dp1530
g51
g52
(g53
tp1531
Rp1532
sg56
I00
sg57
I0
sbasg58
I69
sg59
g765
sg62
(dp1533
(I0
I1
tp1534
g768
s(I0
I0
tp1535
S'GC_35'
p1536
sstp1537
Rp1538
ag0
(g10
g2
(dp1539
g12
g0
(g13
g8
(lp1540
g583
ag586
ag267
atp1541
Rp1542
sg42
(lp1543
g754
ag1523
asg23
(lp1544
g0
(g46
g8
(lp1545
g394
(I1
I0
tp1546
Rp1547
atp1548
Rp1549
(dp1550
g51
g52
(g53
tp1551
Rp1552
sg56
I00
sg57
I0
sbasg58
I70
sg59
g765
sg62
(dp1553
(I0
I1
tp1554
g768
s(I0
I0
tp1555
g1536
sstp1556
Rp1557
ag0
(g10
g2
(dp1558
g12
g0
(g13
g8
(lp1559
g612
ag615
ag267
atp1560
Rp1561
sg42
(lp1562
g754
ag1523
asg23
(lp1563
g0
(g46
g8
(lp1564
g394
(I1
I0
tp1565
Rp1566
atp1567
Rp1568
(dp1569
g51
g52
(g53
tp1570
Rp1571
sg56
I00
sg57
I0
sbasg58
I71
sg59
g765
sg62
(dp1572
(I0
I1
tp1573
g768
s(I0
I0
tp1574
g1536
sstp1575
Rp1576
ag0
(g10
g2
(dp1577
g12
g0
(g13
g8
(lp1578
g1465
ag1400
ag267
atp1579
Rp1580
sg42
(lp1581
g754
asg23
(lp1582
g0
(g46
g8
(lp1583
tp1584
Rp1585
(dp1586
g51
g52
(g53
tp1587
Rp1588
sg56
I00
sg57
I0
sbasg58
I72
sg59
(dp1589
g61
I1
ssg62
(dp1590
(I0
I0
tp1591
S'GC_53'
p1592
sstp1593
Rp1594
ag0
(g10
g2
(dp1595
g12
g0
(g13
g8
(lp1596
g1484
ag1424
ag267
atp1597
Rp1598
sg42
(lp1599
g754
asg23
(lp1600
g0
(g46
g8
(lp1601
tp1602
Rp1603
(dp1604
g51
g52
(g53
tp1605
Rp1606
sg56
I00
sg57
I0
sbasg58
I73
sg59
g1589
sg62
(dp1607
(I0
I0
tp1608
g1592
sstp1609
Rp1610
ag0
(g10
g2
(dp1611
g12
g0
(g13
g8
(lp1612
g1503
ag1446
ag267
atp1613
Rp1614
sg42
(lp1615
g754
asg23
(lp1616
g0
(g46
g8
(lp1617
tp1618
Rp1619
(dp1620
g51
g52
(g53
tp1621
Rp1622
sg56
I00
sg57
I0
sbasg58
I74
sg59
g1589
sg62
(dp1623
(I0
I0
tp1624
g1592
sstp1625
Rp1626
atp1627
Rp1628
sS'coupling_orders'
p1629
NsS'conserved_charge'
p1630
c__builtin__
set
p1631
((lp1632
g31
ag26
atp1633
Rp1634
sS'particle_dict'
p1635
(dp1636
I1
g387
sI2
g556
sI3
g419
sI4
g586
sI5
g447
sI6
g615
sI11
g475
sI12
g1400
sI13
g503
sI14
g1424
sI15
g530
sI16
g1446
sI21
g96
sI22
g173
sI23
g267
sI24
g184
sI25
g39
sI-2
g553
sI-24
g181
sI-16
g1503
sI-15
g527
sI-14
g1484
sI-13
g500
sI-12
g1465
sI-11
g472
sI-6
g612
sI-5
g444
sI-4
g583
sI-3
g416
sI-1
g384
ssg42
NsS'got_majoranas'
p1637
NsS'order_hierarchy'
p1638
(dp1639
sS'functions'
p1640
(lp1641
g0
(csm_complex.object_library
Function
p1642
c__builtin__
object
p1643
Ntp1644
Rp1645
(dp1646
S'expr'
p1647
S'z.conjugate()'
p1648
sg20
S'complexconjugate'
p1649
sS'arguments'
p1650
(S'z'
p1651
tp1652
sbag0
(g1642
g1643
Ntp1653
Rp1654
(dp1655
g1647
S'z.real'
p1656
sg20
S're'
p1657
sg1650
(g1651
tp1658
sbag0
(g1642
g1643
Ntp1659
Rp1660
(dp1661
g1647
S'z.imag'
p1662
sg20
S'im'
p1663
sg1650
(g1651
tp1664
sbag0
(g1642
g1643
Ntp1665
Rp1666
(dp1667
g1647
S'1./cmath.cos(z)'
p1668
sg20
S'sec'
p1669
sg1650
(g1651
tp1670
sbag0
(g1642
g1643
Ntp1671
Rp1672
(dp1673
g1647
S'cmath.acos(1./z)'
p1674
sg20
S'asec'
p1675
sg1650
(g1651
tp1676
sbag0
(g1642
g1643
Ntp1677
Rp1678
(dp1679
g1647
S'1./cmath.sin(z)'
p1680
sg20
S'csc'
p1681
sg1650
(g1651
tp1682
sbag0
(g1642
g1643
Ntp1683
Rp1684
(dp1685
g1647
S'cmath.asin(1./z)'
p1686
sg20
S'acsc'
p1687
sg1650
(g1651
tp1688
sbasS'interaction_dict'
p1689
(dp1690
sg20
S'sm_complex'
p1691
sS'parameters'
p1692
(dp1693
(S'aEWM1'
p1694
tp1695
(lp1696
g0
(cmadgraph.core.base_objects
ModelVariable
p1697
g1643
Ntp1698
Rp1699
(dp1700
g1647
S'1/aEWM1'
p1701
sS'type'
p1702
S'real'
p1703
sg20
S'aEW'
p1704
sS'value'
p1705
NsS'depend'
p1706
g1695
sbag0
(g1697
g1643
Ntp1707
Rp1708
(dp1709
g1647
S' cmath.sqrt(aEW) '
p1710
sg1702
g1703
sg20
S'sqrt__aEW'
p1711
sg1705
Nsg1706
(g1694
tp1712
sbag0
(g1697
g1643
Ntp1713
Rp1714
(dp1715
g1647
S'2*sqrt__aEW*cmath.sqrt(cmath.pi)'
p1716
sg1702
g1703
sg20
S'ee'
p1717
sg1705
Nsg1706
(g1694
tp1718
sbag0
(g1697
g1643
Ntp1719
Rp1720
(dp1721
g1647
S'ee/cw'
p1722
sg1702
g1703
sg20
S'g1'
p1723
sg1705
Nsg1706
(g1694
tp1724
sbag0
(g1697
g1643
Ntp1725
Rp1726
(dp1727
g1647
S'ee/sw'
p1728
sg1702
g1703
sg20
S'gw'
p1729
sg1705
Nsg1706
(g1694
tp1730
sbag0
(g1697
g1643
Ntp1731
Rp1732
(dp1733
g1647
S'(2*MW*sw)/ee'
p1734
sg1702
g1703
sg20
S'v'
p1735
sg1705
Nsg1706
(g1694
tp1736
sbag0
(g1697
g1643
Ntp1737
Rp1738
(dp1739
g1647
S'v**2'
p1740
sg1702
g1703
sg20
S'v__exp__2'
p1741
sg1705
Nsg1706
(g1694
tp1742
sbag0
(g1697
g1643
Ntp1743
Rp1744
(dp1745
g1647
S'MH__exp__2/(2.*v__exp__2)'
p1746
sg1702
g1703
sg20
S'lam'
p1747
sg1705
Nsg1706
(g1694
tp1748
sbag0
(g1697
g1643
Ntp1749
Rp1750
(dp1751
g1647
S'(ymb*sqrt__2)/v'
p1752
sg1702
g1703
sg20
S'yb'
p1753
sg1705
Nsg1706
(g1694
tp1754
sbag0
(g1697
g1643
Ntp1755
Rp1756
(dp1757
g1647
S'(ymc*sqrt__2)/v'
p1758
sg1702
g1703
sg20
S'yc'
p1759
sg1705
Nsg1706
(g1694
tp1760
sbag0
(g1697
g1643
Ntp1761
Rp1762
(dp1763
g1647
S'(ymt*sqrt__2)/v'
p1764
sg1702
g1703
sg20
S'yt'
p1765
sg1705
Nsg1706
(g1694
tp1766
sbag0
(g1697
g1643
Ntp1767
Rp1768
(dp1769
g1647
S'(ymtau*sqrt__2)/v'
p1770
sg1702
g1703
sg20
S'ytau'
p1771
sg1705
Nsg1706
(g1694
tp1772
sbag0
(g1697
g1643
Ntp1773
Rp1774
(dp1775
g1647
S'cmath.sqrt(lam*v__exp__2)'
p1776
sg1702
g1703
sg20
S'muH'
p1777
sg1705
Nsg1706
(g1694
tp1778
sbag0
(g1697
g1643
Ntp1779
Rp1780
(dp1781
g1647
S'ee**2'
p1782
sg1702
g1703
sg20
S'ee__exp__2'
p1783
sg1705
Nsg1706
(g1694
tp1784
sbag0
(g1697
g1643
Ntp1785
Rp1786
(dp1787
g1647
S'gw**2'
p1788
sg1702
g1703
sg20
S'gw__exp__2'
p1789
sg1705
Nsg1706
(g1694
tp1790
sbas(S'external'
p1791
tp1792
(lp1793
g0
(cmadgraph.core.base_objects
ParamCardVariable
p1794
g1643
Ntp1795
Rp1796
(dp1797
S'lhablock'
p1798
S'CKMBLOCK'
p1799
sg20
S'cabi'
p1800
sg1705
F0.227736
sS'lhacode'
p1801
(lp1802
I1
asbag0
(g1794
g1643
Ntp1803
Rp1804
(dp1805
g1798
S'SMINPUTS'
p1806
sg20
S'Gf'
p1807
sg1705
F1.1663900000000002e-05
sg1801
(lp1808
I2
asbag0
(g1794
g1643
Ntp1809
Rp1810
(dp1811
g1798
g1806
sg20
S'aS'
p1812
sg1705
F0.1172
sg1801
(lp1813
I3
asbag0
(g1794
g1643
Ntp1814
Rp1815
(dp1816
g1798
S'YUKAWA'
p1817
sg20
S'ymc'
p1818
sg1705
F1.42
sg1801
(lp1819
I4
asbag0
(g1794
g1643
Ntp1820
Rp1821
(dp1822
g1798
g1817
sg20
S'ymb'
p1823
sg1705
F4.7
sg1801
(lp1824
I5
asbag0
(g1794
g1643
Ntp1825
Rp1826
(dp1827
g1798
g1817
sg20
S'ymt'
p1828
sg1705
F174.3
sg1801
(lp1829
I6
asbag0
(g1794
g1643
Ntp1830
Rp1831
(dp1832
g1798
g1817
sg20
S'ymtau'
p1833
sg1705
F1.777
sg1801
(lp1834
I15
asbag0
(g1794
g1643
Ntp1835
Rp1836
(dp1837
g1798
S'MASS'
p1838
sg20
g469
sg1705
F0.0005110000000000001
sg1801
(lp1839
I11
asbag0
(g1794
g1643
Ntp1840
Rp1841
(dp1842
g1798
g1838
sg20
g497
sg1705
F0.10566
sg1801
(lp1843
I13
asbag0
(g1794
g1643
Ntp1844
Rp1845
(dp1846
g1798
g1838
sg20
g524
sg1705
F1.777
sg1801
(lp1847
I15
asbag0
(g1794
g1643
Ntp1848
Rp1849
(dp1850
g1798
g1838
sg20
g550
sg1705
F0.0025499999999999997
sg1801
(lp1851
I2
asbag0
(g1794
g1643
Ntp1852
Rp1853
(dp1854
g1798
g1838
sg20
g580
sg1705
F1.42
sg1801
(lp1855
I4
asbag0
(g1794
g1643
Ntp1856
Rp1857
(dp1858
g1798
g1838
sg20
g609
sg1705
F174.3
sg1801
(lp1859
I6
asbag0
(g1794
g1643
Ntp1860
Rp1861
(dp1862
g1798
g1838
sg20
g380
sg1705
F0.00504
sg1801
(lp1863
I1
asbag0
(g1794
g1643
Ntp1864
Rp1865
(dp1866
g1798
g1838
sg20
g413
sg1705
F0.104
sg1801
(lp1867
I3
asbag0
(g1794
g1643
Ntp1868
Rp1869
(dp1870
g1798
g1838
sg20
g441
sg1705
F4.7
sg1801
(lp1871
I5
asbag0
(g1794
g1643
Ntp1872
Rp1873
(dp1874
g1798
g1838
sg20
g264
sg1705
F91.188
sg1801
(lp1875
I23
asbag0
(g1794
g1643
Ntp1876
Rp1877
(dp1878
g1798
g1838
sg20
g178
sg1705
F80.48067023374448
sg1801
(lp1879
I24
asbag0
(g1794
g1643
Ntp1880
Rp1881
(dp1882
g1798
g1838
sg20
g28
sg1705
I120
sg1801
(lp1883
I25
asbag0
(g1794
g1643
Ntp1884
Rp1885
(dp1886
g1798
S'DECAY'
p1887
sg20
g523
sg1705
I0
sg1801
(lp1888
I15
asbag0
(g1794
g1643
Ntp1889
Rp1890
(dp1891
g1798
g1887
sg20
g608
sg1705
F1.50833649
sg1801
(lp1892
I6
asbag0
(g1794
g1643
Ntp1893
Rp1894
(dp1895
g1798
g1887
sg20
g263
sg1705
F2.44140351
sg1801
(lp1896
I23
asbag0
(g1794
g1643
Ntp1897
Rp1898
(dp1899
g1798
g1887
sg20
g177
sg1705
F2.04759951
sg1801
(lp1900
I24
asbag0
(g1794
g1643
Ntp1901
Rp1902
(dp1903
g1798
g1887
sg20
g25
sg1705
F0.00575308848
sg1801
(lp1904
I25
asbas(t(lp1905
g0
(g1697
g1643
Ntp1906
Rp1907
(dp1908
g1647
S'0.0'
p1909
sg1702
g1703
sg20
g92
sg1705
Nsg1706
(tsbag0
(g1697
g1643
Ntp1910
Rp1911
(dp1912
g1647
S'MZ**2'
p1913
sg1702
g1703
sg20
S'MZ__exp__2'
p1914
sg1705
Nsg1706
(tsbag0
(g1697
g1643
Ntp1915
Rp1916
(dp1917
g1647
S'MW**2'
p1918
sg1702
g1703
sg20
S'MW__exp__2'
p1919
sg1705
Nsg1706
(tsbag0
(g1697
g1643
Ntp1920
Rp1921
(dp1922
g1647
S' cmath.sqrt(2) '
p1923
sg1702
g1703
sg20
S'sqrt__2'
p1924
sg1705
Nsg1706
(tsbag0
(g1697
g1643
Ntp1925
Rp1926
(dp1927
g1647
S'cmath.pi * MZ__exp__2 / ((MZ__exp__2 - MW__exp__2)*sqrt__2 * Gf * MW__exp__2) '
p1928
sg1702
S'complex'
p1929
sg20
S'aEWM1'
p1930
sg1705
Nsg1706
(tsbag0
(g1697
g1643
Ntp1931
Rp1932
(dp1933
g1647
S'0'
p1934
sg1702
g1703
sg20
S'ye'
p1935
sg1705
Nsg1706
(tsbag0
(g1697
g1643
Ntp1936
Rp1937
(dp1938
g1647
g1934
sg1702
g1703
sg20
S'ym'
p1939
sg1705
Nsg1706
(tsbag0
(g1697
g1643
Ntp1940
Rp1941
(dp1942
g1647
g1934
sg1702
g1703
sg20
S'yup'
p1943
sg1705
Nsg1706
(tsbag0
(g1697
g1643
Ntp1944
Rp1945
(dp1946
g1647
g1934
sg1702
g1703
sg20
S'ydo'
p1947
sg1705
Nsg1706
(tsbag0
(g1697
g1643
Ntp1948
Rp1949
(dp1950
g1647
g1934
sg1702
g1703
sg20
S'ys'
p1951
sg1705
Nsg1706
(tsbag0
(g1697
g1643
Ntp1952
Rp1953
(dp1954
g1647
S' cmath.cos(cabi) '
p1955
sg1702
g1703
sg20
S'cos__cabi'
p1956
sg1705
Nsg1706
(tsbag0
(g1697
g1643
Ntp1957
Rp1958
(dp1959
g1647
g1956
sg1702
g1929
sg20
S'CKM11'
p1960
sg1705
Nsg1706
(tsbag0
(g1697
g1643
Ntp1961
Rp1962
(dp1963
g1647
S' cmath.sin(cabi) '
p1964
sg1702
g1703
sg20
S'sin__cabi'
p1965
sg1705
Nsg1706
(tsbag0
(g1697
g1643
Ntp1966
Rp1967
(dp1968
g1647
g1965
sg1702
g1929
sg20
S'CKM12'
p1969
sg1705
Nsg1706
(tsbag0
(g1697
g1643
Ntp1970
Rp1971
(dp1972
g1647
g1934
sg1702
g1929
sg20
S'CKM13'
p1973
sg1705
Nsg1706
(tsbag0
(g1697
g1643
Ntp1974
Rp1975
(dp1976
g1647
S'-sin__cabi'
p1977
sg1702
g1929
sg20
S'CKM21'
p1978
sg1705
Nsg1706
(tsbag0
(g1697
g1643
Ntp1979
Rp1980
(dp1981
g1647
S'cos__cabi'
p1982
sg1702
g1929
sg20
S'CKM22'
p1983
sg1705
Nsg1706
(tsbag0
(g1697
g1643
Ntp1984
Rp1985
(dp1986
g1647
g1934
sg1702
g1929
sg20
S'CKM23'
p1987
sg1705
Nsg1706
(tsbag0
(g1697
g1643
Ntp1988
Rp1989
(dp1990
g1647
g1934
sg1702
g1929
sg20
S'CKM31'
p1991
sg1705
Nsg1706
(tsbag0
(g1697
g1643
Ntp1992
Rp1993
(dp1994
g1647
g1934
sg1702
g1929
sg20
S'CKM32'
p1995
sg1705
Nsg1706
(tsbag0
(g1697
g1643
Ntp1996
Rp1997
(dp1998
g1647
g53
sg1702
g1929
sg20
S'CKM33'
p1999
sg1705
Nsg1706
(tsbag0
(g1697
g1643
Ntp2000
Rp2001
(dp2002
g1647
S'1 - MW__exp__2/MZ__exp__2'
p2003
sg1702
g1703
sg20
S'sw2'
p2004
sg1705
Nsg1706
(tsbag0
(g1697
g1643
Ntp2005
Rp2006
(dp2007
g1647
S'cmath.sqrt(1 - sw2)'
p2008
sg1702
g1703
sg20
S'cw'
p2009
sg1705
Nsg1706
(tsbag0
(g1697
g1643
Ntp2010
Rp2011
(dp2012
g1647
S' cmath.sqrt(sw2) '
p2013
sg1702
g1703
sg20
S'sqrt__sw2'
p2014
sg1705
Nsg1706
(tsbag0
(g1697
g1643
Ntp2015
Rp2016
(dp2017
g1647
g2014
sg1702
g1703
sg20
S'sw'
p2018
sg1705
Nsg1706
(tsbag0
(g1697
g1643
Ntp2019
Rp2020
(dp2021
g1647
S'MH**2'
p2022
sg1702
g1703
sg20
S'MH__exp__2'
p2023
sg1705
Nsg1706
(tsbag0
(g1697
g1643
Ntp2024
Rp2025
(dp2026
g1647
S'complex(0,1)'
p2027
sg1702
g1929
sg20
S'complexi'
p2028
sg1705
Nsg1706
(tsbag0
(g1697
g1643
Ntp2029
Rp2030
(dp2031
g1647
S'cw**2'
p2032
sg1702
g1703
sg20
S'cw__exp__2'
p2033
sg1705
Nsg1706
(tsbag0
(g1697
g1643
Ntp2034
Rp2035
(dp2036
g1647
S'sw**2'
p2037
sg1702
g1703
sg20
S'sw__exp__2'
p2038
sg1705
Nsg1706
(tsbag0
(g1697
g1643
Ntp2039
Rp2040
(dp2041
g1647
S' complexconjugate(CKM11) '
p2042
sg1702
g1929
sg20
S'conjg__CKM11'
p2043
sg1705
Nsg1706
(tsbag0
(g1697
g1643
Ntp2044
Rp2045
(dp2046
g1647
S' complexconjugate(CKM12) '
p2047
sg1702
g1929
sg20
S'conjg__CKM12'
p2048
sg1705
Nsg1706
(tsbag0
(g1697
g1643
Ntp2049
Rp2050
(dp2051
g1647
S' complexconjugate(CKM13) '
p2052
sg1702
g1929
sg20
S'conjg__CKM13'
p2053
sg1705
Nsg1706
(tsbag0
(g1697
g1643
Ntp2054
Rp2055
(dp2056
g1647
S' complexconjugate(CKM21) '
p2057
sg1702
g1929
sg20
S'conjg__CKM21'
p2058
sg1705
Nsg1706
(tsbag0
(g1697
g1643
Ntp2059
Rp2060
(dp2061
g1647
S' complexconjugate(CKM22) '
p2062
sg1702
g1929
sg20
S'conjg__CKM22'
p2063
sg1705
Nsg1706
(tsbag0
(g1697
g1643
Ntp2064
Rp2065
(dp2066
g1647
S' complexconjugate(CKM23) '
p2067
sg1702
g1929
sg20
S'conjg__CKM23'
p2068
sg1705
Nsg1706
(tsbag0
(g1697
g1643
Ntp2069
Rp2070
(dp2071
g1647
S' complexconjugate(CKM31) '
p2072
sg1702
g1929
sg20
S'conjg__CKM31'
p2073
sg1705
Nsg1706
(tsbag0
(g1697
g1643
Ntp2074
Rp2075
(dp2076
g1647
S' complexconjugate(CKM32) '
p2077
sg1702
g1929
sg20
S'conjg__CKM32'
p2078
sg1705
Nsg1706
(tsbag0
(g1697
g1643
Ntp2079
Rp2080
(dp2081
g1647
S' complexconjugate(CKM33) '
p2082
sg1702
g1929
sg20
S'conjg__CKM33'
p2083
sg1705
Nsg1706
(tsbas(S'aS'
p2084
tp2085
(lp2086
g0
(g1697
g1643
Ntp2087
Rp2088
(dp2089
g1647
S' cmath.sqrt(aS) '
p2090
sg1702
g1703
sg20
S'sqrt__aS'
p2091
sg1705
Nsg1706
g2085
sbag0
(g1697
g1643
Ntp2092
Rp2093
(dp2094
g1647
S'2*sqrt__aS*cmath.sqrt(cmath.pi)'
p2095
sg1702
g1703
sg20
g90
sg1705
Nsg1706
(g2084
tp2096
sbag0
(g1697
g1643
Ntp2097
Rp2098
(dp2099
g1647
S'G**2'
p2100
sg1702
g1703
sg20
S'G__exp__2'
p2101
sg1705
Nsg1706
(g2084
tp2102
sbassS'ref_dict_to1'
p2103
(dp2104
sS'expansion_order'
p2105
NsS'version_tag'
p2106
S"/Users/omatt/Documents/Eclipse2/complex_mass2/models/sm_complex{'date': '2011-09-05', 'version': '1.3.13'}"
p2107
sg12
g0
(g13
g8
(lp2108
g1400
ag1424
ag1446
ag475
ag503
ag530
ag556
ag586
ag615
ag387
ag419
ag447
ag173
ag267
ag184
ag96
ag39
atp2109
Rp2110
sg62
(dp2111
(g1694
tp2112
(lp2113
g0
(g1697
g1643
Ntp2114
Rp2115
(dp2116
g1647
S'-(ee*complexi)/3.'
p2117
sg1702
g1929
sg20
g405
sg1705
Nsg1706
g2112
sbag0
(g1697
g1643
Ntp2118
Rp2119
(dp2120
g1647
S'(2*ee*complexi)/3.'
p2121
sg1702
g1929
sg20
g572
sg1705
Nsg1706
(g1694
tp2122
sbag0
(g1697
g1643
Ntp2123
Rp2124
(dp2125
g1647
S'-(ee*complexi)'
p2126
sg1702
g1929
sg20
g489
sg1705
Nsg1706
(g1694
tp2127
sbag0
(g1697
g1643
Ntp2128
Rp2129
(dp2130
g1647
S'ee*complexi'
p2131
sg1702
g1929
sg20
S'GC_4'
p2132
sg1705
Nsg1706
(g1694
tp2133
sbag0
(g1697
g1643
Ntp2134
Rp2135
(dp2136
g1647
S'2*ee__exp__2*complexi'
p2137
sg1702
g1929
sg20
S'GC_5'
p2138
sg1705
Nsg1706
(g1694
tp2139
sbag0
(g1697
g1643
Ntp2140
Rp2141
(dp2142
g1647
S'-ee__exp__2/(2.*cw)'
p2143
sg1702
g1929
sg20
S'GC_6'
p2144
sg1705
Nsg1706
(g1694
tp2145
sbag0
(g1697
g1643
Ntp2146
Rp2147
(dp2148
g1647
S'(ee__exp__2*complexi)/(2.*cw)'
p2149
sg1702
g1929
sg20
S'GC_7'
p2150
sg1705
Nsg1706
(g1694
tp2151
sbag0
(g1697
g1643
Ntp2152
Rp2153
(dp2154
g1647
S'ee__exp__2/(2.*cw)'
p2155
sg1702
g1929
sg20
S'GC_8'
p2156
sg1705
Nsg1706
(g1694
tp2157
sbag0
(g1697
g1643
Ntp2158
Rp2159
(dp2160
g1647
S'cw*complexi*gw'
p2161
sg1702
g1929
sg20
g281
sg1705
Nsg1706
(g1694
tp2162
sbag0
(g1697
g1643
Ntp2163
Rp2164
(dp2165
g1647
S'-(complexi*gw__exp__2)'
p2166
sg1702
g1929
sg20
g299
sg1705
Nsg1706
(g1694
tp2167
sbag0
(g1697
g1643
Ntp2168
Rp2169
(dp2170
g1647
S'cw__exp__2*complexi*gw__exp__2'
p2171
sg1702
g1929
sg20
g372
sg1705
Nsg1706
(g1694
tp2172
sbag0
(g1697
g1643
Ntp2173
Rp2174
(dp2175
g1647
S'-2*complexi*lam'
p2176
sg1702
g1929
sg20
S'GC_15'
p2177
sg1705
Nsg1706
(g1694
tp2178
sbag0
(g1697
g1643
Ntp2179
Rp2180
(dp2181
g1647
S'-4*complexi*lam'
p2182
sg1702
g1929
sg20
S'GC_16'
p2183
sg1705
Nsg1706
(g1694
tp2184
sbag0
(g1697
g1643
Ntp2185
Rp2186
(dp2187
g1647
S'-6*complexi*lam'
p2188
sg1702
g1929
sg20
g65
sg1705
Nsg1706
(g1694
tp2189
sbag0
(g1697
g1643
Ntp2190
Rp2191
(dp2192
g1647
S'-(ee*MW)'
p2193
sg1702
g1929
sg20
S'GC_18'
p2194
sg1705
Nsg1706
(g1694
tp2195
sbag0
(g1697
g1643
Ntp2196
Rp2197
(dp2198
g1647
S'ee*MW'
p2199
sg1702
g1929
sg20
S'GC_19'
p2200
sg1705
Nsg1706
(g1694
tp2201
sbag0
(g1697
g1643
Ntp2202
Rp2203
(dp2204
g1647
S'(ee__exp__2*complexi)/(2.*sw__exp__2)'
p2205
sg1702
g1929
sg20
g217
sg1705
Nsg1706
(g1694
tp2206
sbag0
(g1697
g1643
Ntp2207
Rp2208
(dp2209
g1647
S'-(ee*complexi)/(2.*sw)'
p2210
sg1702
g1929
sg20
S'GC_21'
p2211
sg1705
Nsg1706
(g1694
tp2212
sbag0
(g1697
g1643
Ntp2213
Rp2214
(dp2215
g1647
S'(ee*complexi)/(2.*sw)'
p2216
sg1702
g1929
sg20
S'GC_22'
p2217
sg1705
Nsg1706
(g1694
tp2218
sbag0
(g1697
g1643
Ntp2219
Rp2220
(dp2221
g1647
S'ee/(2.*sw)'
p2222
sg1702
g1929
sg20
S'GC_23'
p2223
sg1705
Nsg1706
(g1694
tp2224
sbag0
(g1697
g1643
Ntp2225
Rp2226
(dp2227
g1647
S'(ee*complexi)/(sw*sqrt__2)'
p2228
sg1702
g1929
sg20
g1414
sg1705
Nsg1706
(g1694
tp2229
sbag0
(g1697
g1643
Ntp2230
Rp2231
(dp2232
g1647
S'(CKM11*ee*complexi)/(sw*sqrt__2)'
p2233
sg1702
g1929
sg20
g828
sg1705
Nsg1706
(g1694
tp2234
sbag0
(g1697
g1643
Ntp2235
Rp2236
(dp2237
g1647
S'(CKM12*ee*complexi)/(sw*sqrt__2)'
p2238
sg1702
g1929
sg20
g888
sg1705
Nsg1706
(g1694
tp2239
sbag0
(g1697
g1643
Ntp2240
Rp2241
(dp2242
g1647
S'(CKM13*ee*complexi)/(sw*sqrt__2)'
p2243
sg1702
g1929
sg20
g948
sg1705
Nsg1706
(g1694
tp2244
sbag0
(g1697
g1643
Ntp2245
Rp2246
(dp2247
g1647
S'(CKM21*ee*complexi)/(sw*sqrt__2)'
p2248
sg1702
g1929
sg20
g848
sg1705
Nsg1706
(g1694
tp2249
sbag0
(g1697
g1643
Ntp2250
Rp2251
(dp2252
g1647
S'(CKM22*ee*complexi)/(sw*sqrt__2)'
p2253
sg1702
g1929
sg20
g908
sg1705
Nsg1706
(g1694
tp2254
sbag0
(g1697
g1643
Ntp2255
Rp2256
(dp2257
g1647
S'(CKM23*ee*complexi)/(sw*sqrt__2)'
p2258
sg1702
g1929
sg20
g968
sg1705
Nsg1706
(g1694
tp2259
sbag0
(g1697
g1643
Ntp2260
Rp2261
(dp2262
g1647
S'(CKM31*ee*complexi)/(sw*sqrt__2)'
p2263
sg1702
g1929
sg20
g868
sg1705
Nsg1706
(g1694
tp2264
sbag0
(g1697
g1643
Ntp2265
Rp2266
(dp2267
g1647
S'(CKM32*ee*complexi)/(sw*sqrt__2)'
p2268
sg1702
g1929
sg20
g928
sg1705
Nsg1706
(g1694
tp2269
sbag0
(g1697
g1643
Ntp2270
Rp2271
(dp2272
g1647
S'(CKM33*ee*complexi)/(sw*sqrt__2)'
p2273
sg1702
g1929
sg20
g988
sg1705
Nsg1706
(g1694
tp2274
sbag0
(g1697
g1643
Ntp2275
Rp2276
(dp2277
g1647
S'-(cw*ee*complexi)/(2.*sw)'
p2278
sg1702
g1929
sg20
g770
sg1705
Nsg1706
(g1694
tp2279
sbag0
(g1697
g1643
Ntp2280
Rp2281
(dp2282
g1647
S'(cw*ee*complexi)/(2.*sw)'
p2283
sg1702
g1929
sg20
g1536
sg1705
Nsg1706
(g1694
tp2284
sbag0
(g1697
g1643
Ntp2285
Rp2286
(dp2287
g1647
S'-((cw*ee*complexi)/sw)'
p2288
sg1702
g1929
sg20
S'GC_36'
p2289
sg1705
Nsg1706
(g1694
tp2290
sbag0
(g1697
g1643
Ntp2291
Rp2292
(dp2293
g1647
S'(cw*ee*complexi)/sw'
p2294
sg1702
g1929
sg20
S'GC_37'
p2295
sg1705
Nsg1706
(g1694
tp2296
sbag0
(g1697
g1643
Ntp2297
Rp2298
(dp2299
g1647
S'-ee__exp__2/(2.*sw)'
p2300
sg1702
g1929
sg20
S'GC_38'
p2301
sg1705
Nsg1706
(g1694
tp2302
sbag0
(g1697
g1643
Ntp2303
Rp2304
(dp2305
g1647
S'-(ee__exp__2*complexi)/(2.*sw)'
p2306
sg1702
g1929
sg20
S'GC_39'
p2307
sg1705
Nsg1706
(g1694
tp2308
sbag0
(g1697
g1643
Ntp2309
Rp2310
(dp2311
g1647
S'ee__exp__2/(2.*sw)'
p2312
sg1702
g1929
sg20
S'GC_40'
p2313
sg1705
Nsg1706
(g1694
tp2314
sbag0
(g1697
g1643
Ntp2315
Rp2316
(dp2317
g1647
S'-(ee*MW)/(2.*sw)'
p2318
sg1702
g1929
sg20
S'GC_41'
p2319
sg1705
Nsg1706
(g1694
tp2320
sbag0
(g1697
g1643
Ntp2321
Rp2322
(dp2323
g1647
S'-(ee*complexi*MW)/(2.*sw)'
p2324
sg1702
g1929
sg20
S'GC_42'
p2325
sg1705
Nsg1706
(g1694
tp2326
sbag0
(g1697
g1643
Ntp2327
Rp2328
(dp2329
g1647
S'(ee*MW)/(2.*sw)'
p2330
sg1702
g1929
sg20
S'GC_43'
p2331
sg1705
Nsg1706
(g1694
tp2332
sbag0
(g1697
g1643
Ntp2333
Rp2334
(dp2335
g1647
S'-(ee*MZ)/(2.*sw)'
p2336
sg1702
g1929
sg20
S'GC_44'
p2337
sg1705
Nsg1706
(g1694
tp2338
sbag0
(g1697
g1643
Ntp2339
Rp2340
(dp2341
g1647
S'(ee*MZ)/(2.*sw)'
p2342
sg1702
g1929
sg20
S'GC_45'
p2343
sg1705
Nsg1706
(g1694
tp2344
sbag0
(g1697
g1643
Ntp2345
Rp2346
(dp2347
g1647
S'-(ee*complexi*MZ)/(2.*cw*sw)'
p2348
sg1702
g1929
sg20
S'GC_46'
p2349
sg1705
Nsg1706
(g1694
tp2350
sbag0
(g1697
g1643
Ntp2351
Rp2352
(dp2353
g1647
S'-(ee*complexi*sw)/(6.*cw)'
p2354
sg1702
g1929
sg20
g768
sg1705
Nsg1706
(g1694
tp2355
sbag0
(g1697
g1643
Ntp2356
Rp2357
(dp2358
g1647
S'(ee*complexi*sw)/(2.*cw)'
p2359
sg1702
g1929
sg20
g1355
sg1705
Nsg1706
(g1694
tp2360
sbag0
(g1697
g1643
Ntp2361
Rp2362
(dp2363
g1647
S'complexi*gw*sw'
p2364
sg1702
g1929
sg20
g198
sg1705
Nsg1706
(g1694
tp2365
sbag0
(g1697
g1643
Ntp2366
Rp2367
(dp2368
g1647
S'-2*cw*complexi*gw__exp__2*sw'
p2369
sg1702
g1929
sg20
g318
sg1705
Nsg1706
(g1694
tp2370
sbag0
(g1697
g1643
Ntp2371
Rp2372
(dp2373
g1647
S'complexi*gw__exp__2*sw__exp__2'
p2374
sg1702
g1929
sg20
g255
sg1705
Nsg1706
(g1694
tp2375
sbag0
(g1697
g1643
Ntp2376
Rp2377
(dp2378
g1647
S'-(cw*ee*complexi)/(2.*sw) + (ee*complexi*sw)/(2.*cw)'
p2379
sg1702
g1929
sg20
S'GC_52'
p2380
sg1705
Nsg1706
(g1694
tp2381
sbag0
(g1697
g1643
Ntp2382
Rp2383
(dp2384
g1647
S'(cw*ee*complexi)/(2.*sw) + (ee*complexi*sw)/(2.*cw)'
p2385
sg1702
g1929
sg20
g1592
sg1705
Nsg1706
(g1694
tp2386
sbag0
(g1697
g1643
Ntp2387
Rp2388
(dp2389
g1647
S'(cw*ee)/(2.*sw) + (ee*sw)/(2.*cw)'
p2390
sg1702
g1929
sg20
S'GC_54'
p2391
sg1705
Nsg1706
(g1694
tp2392
sbag0
(g1697
g1643
Ntp2393
Rp2394
(dp2395
g1647
S'(cw*ee__exp__2*complexi)/sw - (ee__exp__2*complexi*sw)/cw'
p2396
sg1702
g1929
sg20
S'GC_55'
p2397
sg1705
Nsg1706
(g1694
tp2398
sbag0
(g1697
g1643
Ntp2399
Rp2400
(dp2401
g1647
S'(cw*ee*MW)/(2.*sw) - (ee*MW*sw)/(2.*cw)'
p2402
sg1702
g1929
sg20
S'GC_56'
p2403
sg1705
Nsg1706
(g1694
tp2404
sbag0
(g1697
g1643
Ntp2405
Rp2406
(dp2407
g1647
S'-(cw*ee*MW)/(2.*sw) + (ee*MW*sw)/(2.*cw)'
p2408
sg1702
g1929
sg20
S'GC_57'
p2409
sg1705
Nsg1706
(g1694
tp2410
sbag0
(g1697
g1643
Ntp2411
Rp2412
(dp2413
g1647
S'-(ee__exp__2*complexi) + (cw__exp__2*ee__exp__2*complexi)/(2.*sw__exp__2) + (ee__exp__2*complexi*sw__exp__2)/(2.*cw__exp__2)'
p2414
sg1702
g1929
sg20
S'GC_58'
p2415
sg1705
Nsg1706
(g1694
tp2416
sbag0
(g1697
g1643
Ntp2417
Rp2418
(dp2419
g1647
S'ee__exp__2*complexi + (cw__exp__2*ee__exp__2*complexi)/(2.*sw__exp__2) + (ee__exp__2*complexi*sw__exp__2)/(2.*cw__exp__2)'
p2420
sg1702
g1929
sg20
g336
sg1705
Nsg1706
(g1694
tp2421
sbag0
(g1697
g1643
Ntp2422
Rp2423
(dp2424
g1647
S'-(ee__exp__2*v)/(2.*cw)'
p2425
sg1702
g1929
sg20
S'GC_60'
p2426
sg1705
Nsg1706
(g1694
tp2427
sbag0
(g1697
g1643
Ntp2428
Rp2429
(dp2430
g1647
S'(ee__exp__2*v)/(2.*cw)'
p2431
sg1702
g1929
sg20
S'GC_61'
p2432
sg1705
Nsg1706
(g1694
tp2433
sbag0
(g1697
g1643
Ntp2434
Rp2435
(dp2436
g1647
S'-2*complexi*lam*v'
p2437
sg1702
g1929
sg20
S'GC_62'
p2438
sg1705
Nsg1706
(g1694
tp2439
sbag0
(g1697
g1643
Ntp2440
Rp2441
(dp2442
g1647
S'-6*complexi*lam*v'
p2443
sg1702
g1929
sg20
g84
sg1705
Nsg1706
(g1694
tp2444
sbag0
(g1697
g1643
Ntp2445
Rp2446
(dp2447
g1647
S'(ee__exp__2*complexi*v)/(2.*sw__exp__2)'
p2448
sg1702
g1929
sg20
g236
sg1705
Nsg1706
(g1694
tp2449
sbag0
(g1697
g1643
Ntp2450
Rp2451
(dp2452
g1647
S'-(ee__exp__2*v)/(2.*sw)'
p2453
sg1702
g1929
sg20
S'GC_65'
p2454
sg1705
Nsg1706
(g1694
tp2455
sbag0
(g1697
g1643
Ntp2456
Rp2457
(dp2458
g1647
S'(ee__exp__2*v)/(2.*sw)'
p2459
sg1702
g1929
sg20
S'GC_66'
p2460
sg1705
Nsg1706
(g1694
tp2461
sbag0
(g1697
g1643
Ntp2462
Rp2463
(dp2464
g1647
S'ee__exp__2*complexi*v + (cw__exp__2*ee__exp__2*complexi*v)/(2.*sw__exp__2) + (ee__exp__2*complexi*sw__exp__2*v)/(2.*cw__exp__2)'
p2465
sg1702
g1929
sg20
g354
sg1705
Nsg1706
(g1694
tp2466
sbag0
(g1697
g1643
Ntp2467
Rp2468
(dp2469
g1647
S'-((complexi*yb)/sqrt__2)'
p2470
sg1702
g1929
sg20
g746
sg1705
Nsg1706
(g1694
tp2471
sbag0
(g1697
g1643
Ntp2472
Rp2473
(dp2474
g1647
S'yb/sqrt__2'
p2475
sg1702
g1929
sg20
S'GC_69'
p2476
sg1705
Nsg1706
(g1694
tp2477
sbag0
(g1697
g1643
Ntp2478
Rp2479
(dp2480
g1647
S'-(CKM13*yb)'
p2481
sg1702
g1929
sg20
S'GC_70'
p2482
sg1705
Nsg1706
(g1694
tp2483
sbag0
(g1697
g1643
Ntp2484
Rp2485
(dp2486
g1647
S'-(CKM23*yb)'
p2487
sg1702
g1929
sg20
S'GC_71'
p2488
sg1705
Nsg1706
(g1694
tp2489
sbag0
(g1697
g1643
Ntp2490
Rp2491
(dp2492
g1647
S'-(CKM33*yb)'
p2493
sg1702
g1929
sg20
S'GC_72'
p2494
sg1705
Nsg1706
(g1694
tp2495
sbag0
(g1697
g1643
Ntp2496
Rp2497
(dp2498
g1647
S'-(yc/sqrt__2)'
p2499
sg1702
g1929
sg20
S'GC_73'
p2500
sg1705
Nsg1706
(g1694
tp2501
sbag0
(g1697
g1643
Ntp2502
Rp2503
(dp2504
g1647
S'-((complexi*yc)/sqrt__2)'
p2505
sg1702
g1929
sg20
g1316
sg1705
Nsg1706
(g1694
tp2506
sbag0
(g1697
g1643
Ntp2507
Rp2508
(dp2509
g1647
S'CKM21*yc'
p2510
sg1702
g1929
sg20
S'GC_75'
p2511
sg1705
Nsg1706
(g1694
tp2512
sbag0
(g1697
g1643
Ntp2513
Rp2514
(dp2515
g1647
S'CKM22*yc'
p2516
sg1702
g1929
sg20
S'GC_76'
p2517
sg1705
Nsg1706
(g1694
tp2518
sbag0
(g1697
g1643
Ntp2519
Rp2520
(dp2521
g1647
S'CKM23*yc'
p2522
sg1702
g1929
sg20
S'GC_77'
p2523
sg1705
Nsg1706
(g1694
tp2524
sbag0
(g1697
g1643
Ntp2525
Rp2526
(dp2527
g1647
S'-(yt/sqrt__2)'
p2528
sg1702
g1929
sg20
S'GC_96'
p2529
sg1705
Nsg1706
(g1694
tp2530
sbag0
(g1697
g1643
Ntp2531
Rp2532
(dp2533
g1647
S'-((complexi*yt)/sqrt__2)'
p2534
sg1702
g1929
sg20
g1336
sg1705
Nsg1706
(g1694
tp2535
sbag0
(g1697
g1643
Ntp2536
Rp2537
(dp2538
g1647
S'CKM31*yt'
p2539
sg1702
g1929
sg20
S'GC_98'
p2540
sg1705
Nsg1706
(g1694
tp2541
sbag0
(g1697
g1643
Ntp2542
Rp2543
(dp2544
g1647
S'CKM32*yt'
p2545
sg1702
g1929
sg20
S'GC_99'
p2546
sg1705
Nsg1706
(g1694
tp2547
sbag0
(g1697
g1643
Ntp2548
Rp2549
(dp2550
g1647
S'CKM33*yt'
p2551
sg1702
g1929
sg20
S'GC_100'
p2552
sg1705
Nsg1706
(g1694
tp2553
sbag0
(g1697
g1643
Ntp2554
Rp2555
(dp2556
g1647
S'-ytau'
p2557
sg1702
g1929
sg20
S'GC_101'
p2558
sg1705
Nsg1706
(g1694
tp2559
sbag0
(g1697
g1643
Ntp2560
Rp2561
(dp2562
g1647
g1771
sg1702
g1929
sg20
S'GC_102'
p2563
sg1705
Nsg1706
(g1694
tp2564
sbag0
(g1697
g1643
Ntp2565
Rp2566
(dp2567
g1647
S'-((complexi*ytau)/sqrt__2)'
p2568
sg1702
g1929
sg20
g1276
sg1705
Nsg1706
(g1694
tp2569
sbag0
(g1697
g1643
Ntp2570
Rp2571
(dp2572
g1647
S'ytau/sqrt__2'
p2573
sg1702
g1929
sg20
S'GC_104'
p2574
sg1705
Nsg1706
(g1694
tp2575
sbag0
(g1697
g1643
Ntp2576
Rp2577
(dp2578
g1647
S'(ee*complexi*conjg__CKM11)/(sw*sqrt__2)'
p2579
sg1702
g1929
sg20
g1008
sg1705
Nsg1706
(g1694
tp2580
sbag0
(g1697
g1643
Ntp2581
Rp2582
(dp2583
g1647
S'(ee*complexi*conjg__CKM12)/(sw*sqrt__2)'
p2584
sg1702
g1929
sg20
g1068
sg1705
Nsg1706
(g1694
tp2585
sbag0
(g1697
g1643
Ntp2586
Rp2587
(dp2588
g1647
S'(ee*complexi*conjg__CKM13)/(sw*sqrt__2)'
p2589
sg1702
g1929
sg20
g1128
sg1705
Nsg1706
(g1694
tp2590
sbag0
(g1697
g1643
Ntp2591
Rp2592
(dp2593
g1647
S'yb*conjg__CKM13'
p2594
sg1702
g1929
sg20
S'GC_117'
p2595
sg1705
Nsg1706
(g1694
tp2596
sbag0
(g1697
g1643
Ntp2597
Rp2598
(dp2599
g1647
S'(ee*complexi*conjg__CKM21)/(sw*sqrt__2)'
p2600
sg1702
g1929
sg20
g1028
sg1705
Nsg1706
(g1694
tp2601
sbag0
(g1697
g1643
Ntp2602
Rp2603
(dp2604
g1647
S'-(yc*conjg__CKM21)'
p2605
sg1702
g1929
sg20
S'GC_120'
p2606
sg1705
Nsg1706
(g1694
tp2607
sbag0
(g1697
g1643
Ntp2608
Rp2609
(dp2610
g1647
S'(ee*complexi*conjg__CKM22)/(sw*sqrt__2)'
p2611
sg1702
g1929
sg20
g1088
sg1705
Nsg1706
(g1694
tp2612
sbag0
(g1697
g1643
Ntp2613
Rp2614
(dp2615
g1647
S'-(yc*conjg__CKM22)'
p2616
sg1702
g1929
sg20
S'GC_123'
p2617
sg1705
Nsg1706
(g1694
tp2618
sbag0
(g1697
g1643
Ntp2619
Rp2620
(dp2621
g1647
S'(ee*complexi*conjg__CKM23)/(sw*sqrt__2)'
p2622
sg1702
g1929
sg20
g1148
sg1705
Nsg1706
(g1694
tp2623
sbag0
(g1697
g1643
Ntp2624
Rp2625
(dp2626
g1647
S'yb*conjg__CKM23'
p2627
sg1702
g1929
sg20
S'GC_126'
p2628
sg1705
Nsg1706
(g1694
tp2629
sbag0
(g1697
g1643
Ntp2630
Rp2631
(dp2632
g1647
S'-(yc*conjg__CKM23)'
p2633
sg1702
g1929
sg20
S'GC_127'
p2634
sg1705
Nsg1706
(g1694
tp2635
sbag0
(g1697
g1643
Ntp2636
Rp2637
(dp2638
g1647
S'(ee*complexi*conjg__CKM31)/(sw*sqrt__2)'
p2639
sg1702
g1929
sg20
g1048
sg1705
Nsg1706
(g1694
tp2640
sbag0
(g1697
g1643
Ntp2641
Rp2642
(dp2643
g1647
S'-(yt*conjg__CKM31)'
p2644
sg1702
g1929
sg20
S'GC_130'
p2645
sg1705
Nsg1706
(g1694
tp2646
sbag0
(g1697
g1643
Ntp2647
Rp2648
(dp2649
g1647
S'(ee*complexi*conjg__CKM32)/(sw*sqrt__2)'
p2650
sg1702
g1929
sg20
g1108
sg1705
Nsg1706
(g1694
tp2651
sbag0
(g1697
g1643
Ntp2652
Rp2653
(dp2654
g1647
S'-(yt*conjg__CKM32)'
p2655
sg1702
g1929
sg20
S'GC_133'
p2656
sg1705
Nsg1706
(g1694
tp2657
sbag0
(g1697
g1643
Ntp2658
Rp2659
(dp2660
g1647
S'(ee*complexi*conjg__CKM33)/(sw*sqrt__2)'
p2661
sg1702
g1929
sg20
g1168
sg1705
Nsg1706
(g1694
tp2662
sbag0
(g1697
g1643
Ntp2663
Rp2664
(dp2665
g1647
S'yb*conjg__CKM33'
p2666
sg1702
g1929
sg20
S'GC_135'
p2667
sg1705
Nsg1706
(g1694
tp2668
sbag0
(g1697
g1643
Ntp2669
Rp2670
(dp2671
g1647
S'-(yt*conjg__CKM33)'
p2672
sg1702
g1929
sg20
S'GC_136'
p2673
sg1705
Nsg1706
(g1694
tp2674
sbas(t(lp2675
g0
(g1697
g1643
Ntp2676
Rp2677
(dp2678
g1647
S'-((complexi*ydo)/sqrt__2)'
p2679
sg1702
g1929
sg20
g706
sg1705
Nsg1706
(tsbag0
(g1697
g1643
Ntp2680
Rp2681
(dp2682
g1647
S'ydo/sqrt__2'
p2683
sg1702
g1929
sg20
S'GC_79'
p2684
sg1705
Nsg1706
(tsbag0
(g1697
g1643
Ntp2685
Rp2686
(dp2687
g1647
S'-(CKM11*ydo)'
p2688
sg1702
g1929
sg20
S'GC_80'
p2689
sg1705
Nsg1706
(tsbag0
(g1697
g1643
Ntp2690
Rp2691
(dp2692
g1647
S'-(CKM21*ydo)'
p2693
sg1702
g1929
sg20
S'GC_81'
p2694
sg1705
Nsg1706
(tsbag0
(g1697
g1643
Ntp2695
Rp2696
(dp2697
g1647
S'-(CKM31*ydo)'
p2698
sg1702
g1929
sg20
S'GC_82'
p2699
sg1705
Nsg1706
(tsbag0
(g1697
g1643
Ntp2700
Rp2701
(dp2702
g1647
S'-ye'
p2703
sg1702
g1929
sg20
S'GC_83'
p2704
sg1705
Nsg1706
(tsbag0
(g1697
g1643
Ntp2705
Rp2706
(dp2707
g1647
g1935
sg1702
g1929
sg20
S'GC_84'
p2708
sg1705
Nsg1706
(tsbag0
(g1697
g1643
Ntp2709
Rp2710
(dp2711
g1647
S'-((complexi*ye)/sqrt__2)'
p2712
sg1702
g1929
sg20
g1240
sg1705
Nsg1706
(tsbag0
(g1697
g1643
Ntp2713
Rp2714
(dp2715
g1647
S'ye/sqrt__2'
p2716
sg1702
g1929
sg20
S'GC_86'
p2717
sg1705
Nsg1706
(tsbag0
(g1697
g1643
Ntp2718
Rp2719
(dp2720
g1647
S'-ym'
p2721
sg1702
g1929
sg20
S'GC_87'
p2722
sg1705
Nsg1706
(tsbag0
(g1697
g1643
Ntp2723
Rp2724
(dp2725
g1647
g1939
sg1702
g1929
sg20
S'GC_88'
p2726
sg1705
Nsg1706
(tsbag0
(g1697
g1643
Ntp2727
Rp2728
(dp2729
g1647
S'-((complexi*ym)/sqrt__2)'
p2730
sg1702
g1929
sg20
g1258
sg1705
Nsg1706
(tsbag0
(g1697
g1643
Ntp2731
Rp2732
(dp2733
g1647
S'ym/sqrt__2'
p2734
sg1702
g1929
sg20
S'GC_90'
p2735
sg1705
Nsg1706
(tsbag0
(g1697
g1643
Ntp2736
Rp2737
(dp2738
g1647
S'-((complexi*ys)/sqrt__2)'
p2739
sg1702
g1929
sg20
g726
sg1705
Nsg1706
(tsbag0
(g1697
g1643
Ntp2740
Rp2741
(dp2742
g1647
S'ys/sqrt__2'
p2743
sg1702
g1929
sg20
S'GC_92'
p2744
sg1705
Nsg1706
(tsbag0
(g1697
g1643
Ntp2745
Rp2746
(dp2747
g1647
S'-(CKM12*ys)'
p2748
sg1702
g1929
sg20
S'GC_93'
p2749
sg1705
Nsg1706
(tsbag0
(g1697
g1643
Ntp2750
Rp2751
(dp2752
g1647
S'-(CKM22*ys)'
p2753
sg1702
g1929
sg20
S'GC_94'
p2754
sg1705
Nsg1706
(tsbag0
(g1697
g1643
Ntp2755
Rp2756
(dp2757
g1647
S'-(CKM32*ys)'
p2758
sg1702
g1929
sg20
S'GC_95'
p2759
sg1705
Nsg1706
(tsbag0
(g1697
g1643
Ntp2760
Rp2761
(dp2762
g1647
S'-(yup/sqrt__2)'
p2763
sg1702
g1929
sg20
S'GC_105'
p2764
sg1705
Nsg1706
(tsbag0
(g1697
g1643
Ntp2765
Rp2766
(dp2767
g1647
S'-((complexi*yup)/sqrt__2)'
p2768
sg1702
g1929
sg20
g1296
sg1705
Nsg1706
(tsbag0
(g1697
g1643
Ntp2769
Rp2770
(dp2771
g1647
S'CKM11*yup'
p2772
sg1702
g1929
sg20
S'GC_107'
p2773
sg1705
Nsg1706
(tsbag0
(g1697
g1643
Ntp2774
Rp2775
(dp2776
g1647
S'CKM12*yup'
p2777
sg1702
g1929
sg20
S'GC_108'
p2778
sg1705
Nsg1706
(tsbag0
(g1697
g1643
Ntp2779
Rp2780
(dp2781
g1647
S'CKM13*yup'
p2782
sg1702
g1929
sg20
S'GC_109'
p2783
sg1705
Nsg1706
(tsbag0
(g1697
g1643
Ntp2784
Rp2785
(dp2786
g1647
S'ydo*conjg__CKM11'
p2787
sg1702
g1929
sg20
S'GC_111'
p2788
sg1705
Nsg1706
(tsbag0
(g1697
g1643
Ntp2789
Rp2790
(dp2791
g1647
S'-(yup*conjg__CKM11)'
p2792
sg1702
g1929
sg20
S'GC_112'
p2793
sg1705
Nsg1706
(tsbag0
(g1697
g1643
Ntp2794
Rp2795
(dp2796
g1647
S'ys*conjg__CKM12'
p2797
sg1702
g1929
sg20
S'GC_114'
p2798
sg1705
Nsg1706
(tsbag0
(g1697
g1643
Ntp2799
Rp2800
(dp2801
g1647
S'-(yup*conjg__CKM12)'
p2802
sg1702
g1929
sg20
S'GC_115'
p2803
sg1705
Nsg1706
(tsbag0
(g1697
g1643
Ntp2804
Rp2805
(dp2806
g1647
S'-(yup*conjg__CKM13)'
p2807
sg1702
g1929
sg20
S'GC_118'
p2808
sg1705
Nsg1706
(tsbag0
(g1697
g1643
Ntp2809
Rp2810
(dp2811
g1647
S'ydo*conjg__CKM21'
p2812
sg1702
g1929
sg20
S'GC_121'
p2813
sg1705
Nsg1706
(tsbag0
(g1697
g1643
Ntp2814
Rp2815
(dp2816
g1647
S'ys*conjg__CKM22'
p2817
sg1702
g1929
sg20
S'GC_124'
p2818
sg1705
Nsg1706
(tsbag0
(g1697
g1643
Ntp2819
Rp2820
(dp2821
g1647
S'ydo*conjg__CKM31'
p2822
sg1702
g1929
sg20
S'GC_129'
p2823
sg1705
Nsg1706
(tsbag0
(g1697
g1643
Ntp2824
Rp2825
(dp2826
g1647
S'ys*conjg__CKM32'
p2827
sg1702
g1929
sg20
S'GC_132'
p2828
sg1705
Nsg1706
(tsbas(g2084
tp2829
(lp2830
g0
(g1697
g1643
Ntp2831
Rp2832
(dp2833
g1647
S'-G'
p2834
sg1702
g1929
sg20
g115
sg1705
Nsg1706
g2829
sbag0
(g1697
g1643
Ntp2835
Rp2836
(dp2837
g1647
S'complexi*G'
p2838
sg1702
g1929
sg20
g649
sg1705
Nsg1706
(g2084
tp2839
sbag0
(g1697
g1643
Ntp2840
Rp2841
(dp2842
g1647
S'complexi*G__exp__2'
p2843
sg1702
g1929
sg20
g160
sg1705
Nsg1706
(g2084
tp2844
sbasstp2845
Rp2846
.