(dp1
(S'L_1'
p2
I2
tp3
ccopy_reg
_reconstructor
p4
(c__main__
AbstractHelas
p5
c__builtin__
object
p6
NtRp7
(dp8
S'outgoing'
p9
I2
sS'lorentz_expr'
p10
S'1'
sS'name'
p11
g2
sS'spins'
p12
(lp13
I1
aI1
aI1
asS'helas_kernel'
p14
I1
sbs(S'L_12'
p15
I2
tp16
g4
(g5
g6
NtRp17
(dp18
g9
I2
sg10
S'Metric(1,4)*Metric(2,3) - Metric(1,3)*Metric(2,4)'
p19
sg11
g15
sg12
(lp20
I3
aI3
aI3
aI3
asg14
g4
(chelas.helasamp_lib
AddVariable
p21
c__builtin__
list
p22
(lp23
g4
(chelas.helasamp_lib
MultLorentz
p24
g22
(lp25
g4
(chelas.helasamp_object
Metric
p26
g6
NtRp27
(dp28
S'lorentz_ind'
p29
(lp30
I1
aI4
asS'power'
p31
I1
sS'spin_ind'
p32
(lp33
sS'tag'
p34
c__builtin__
set
p35
((ltRp36
sS'variable'
p37
S'Metric^{1,4}'
p38
sS'prefactor'
p39
I1
sbag4
(g26
g6
NtRp40
(dp41
g29
(lp42
I2
aI3
asg31
I1
sg32
(lp43
sg34
g35
((ltRp44
sg37
S'Metric^{2,3}'
p45
sg39
I1
sbatRp46
(dp47
g34
g35
((ltRp48
sg39
I1
sbag4
(g24
g22
(lp49
g4
(g26
g6
NtRp50
(dp51
g29
(lp52
I1
aI3
asg31
I1
sg32
(lp53
sg34
g35
((ltRp54
sg37
S'Metric^{1,3}'
p55
sg39
I1
sbag4
(g26
g6
NtRp56
(dp57
g29
(lp58
I2
aI4
asg31
I1
sg32
(lp59
sg34
g35
((ltRp60
sg37
S'Metric^{2,4}'
p61
sg39
I1
sbatRp62
(dp63
g34
g35
((ltRp64
sg39
I-1
sbatRp65
(dp66
g34
g35
((ltRp67
sg39
I1
sbsbs(S'L_4'
p68
I0
tp69
g4
(g5
g6
NtRp70
(dp71
g9
I0
sg11
g68
sS'expr'
p72
Nsg10
S'Gamma(1,2,3)'
p73
sg14
g4
(chelas.helasamp_object
Gamma
p74
g6
NtRp75
(dp76
g29
(lp77
I1
asg31
I1
sg32
(lp78
I2
aI3
asg34
g35
((ltRp79
sg37
S'Gamma^{1}_{2,3}'
p80
sg39
I1
sbsg12
(lp81
I3
aI2
aI2
asbs(S'L_10'
p82
I0
tp83
g4
(g5
g6
NtRp84
(dp85
g9
I0
sg11
g82
sg72
Nsg10
S'1'
sg14
I1
sg12
(lp86
I1
aI1
aI1
aI1
asbs(S'L_9'
p87
I0
tp88
g4
(g5
g6
NtRp89
(dp90
g9
I0
sg11
g87
sg72
Nsg10
S'P(3,1)*Metric(1,2) - P(3,2)*Metric(1,2) - P(2,1)*Metric(1,3) + P(2,3)*Metric(1,3) + P(1,2)*Metric(2,3) - P(1,3)*Metric(2,3)'
p91
sg14
g4
(g21
g22
(lp92
g4
(g24
g22
(lp93
g4
(chelas.helasamp_object
P
p94
g6
NtRp95
(dp96
g29
(lp97
I3
asS'particle'
p98
I1
sg31
I1
sg32
(lp99
sg34
g35
((lp100
S'P1'
p101
atRp102
sg37
S'P1^{3}'
p103
sg39
I1
sbag4
(g26
g6
NtRp104
(dp105
g29
(lp106
I1
aI2
asg31
I1
sg32
(lp107
sg34
g35
((ltRp108
sg37
S'Metric^{1,2}'
p109
sg39
I1
sbatRp110
(dp111
g34
g35
((ltRp112
sg39
I1
sbag4
(g24
g22
(lp113
g4
(g94
g6
NtRp114
(dp115
g29
(lp116
I3
asg98
I2
sg31
I1
sg32
(lp117
sg34
g35
((lp118
S'P2'
p119
atRp120
sg37
S'P2^{3}'
p121
sg39
I1
sbag4
(g26
g6
NtRp122
(dp123
g29
(lp124
I1
aI2
asg31
I1
sg32
(lp125
sg34
g35
((ltRp126
sg37
S'Metric^{1,2}'
p127
sg39
I1
sbatRp128
(dp129
g34
g35
((ltRp130
sg39
I-1
sbag4
(g24
g22
(lp131
g4
(g94
g6
NtRp132
(dp133
g29
(lp134
I2
asg98
I1
sg31
I1
sg32
(lp135
sg34
g35
((lp136
S'P1'
p137
atRp138
sg37
S'P1^{2}'
p139
sg39
I1
sbag4
(g26
g6
NtRp140
(dp141
g29
(lp142
I1
aI3
asg31
I1
sg32
(lp143
sg34
g35
((ltRp144
sg37
S'Metric^{1,3}'
p145
sg39
I1
sbatRp146
(dp147
g34
g35
((ltRp148
sg39
I-1
sbag4
(g24
g22
(lp149
g4
(g94
g6
NtRp150
(dp151
g29
(lp152
I2
asg98
I3
sg31
I1
sg32
(lp153
sg34
g35
((lp154
S'P3'
p155
atRp156
sg37
S'P3^{2}'
p157
sg39
I1
sbag4
(g26
g6
NtRp158
(dp159
g29
(lp160
I1
aI3
asg31
I1
sg32
(lp161
sg34
g35
((ltRp162
sg37
S'Metric^{1,3}'
p163
sg39
I1
sbatRp164
(dp165
g34
g35
((ltRp166
sg39
I1
sbag4
(g24
g22
(lp167
g4
(g94
g6
NtRp168
(dp169
g29
(lp170
I1
asg98
I2
sg31
I1
sg32
(lp171
sg34
g35
((lp172
S'P2'
p173
atRp174
sg37
S'P2^{1}'
p175
sg39
I1
sbag4
(g26
g6
NtRp176
(dp177
g29
(lp178
I2
aI3
asg31
I1
sg32
(lp179
sg34
g35
((ltRp180
sg37
S'Metric^{2,3}'
p181
sg39
I1
sbatRp182
(dp183
g34
g35
((ltRp184
sg39
I1
sbag4
(g24
g22
(lp185
g4
(g94
g6
NtRp186
(dp187
g29
(lp188
I1
asg98
I3
sg31
I1
sg32
(lp189
sg34
g35
((lp190
S'P3'
p191
atRp192
sg37
S'P3^{1}'
p193
sg39
I1
sbag4
(g26
g6
NtRp194
(dp195
g29
(lp196
I2
aI3
asg31
I1
sg32
(lp197
sg34
g35
((ltRp198
sg37
S'Metric^{2,3}'
p199
sg39
I1
sbatRp200
(dp201
g34
g35
((ltRp202
sg39
I-1
sbatRp203
(dp204
g34
g35
((ltRp205
sg39
I1
sbsg12
(lp206
I3
aI3
aI3
asbs(S'L_6'
p207
I2
tp208
g4
(g5
g6
NtRp209
(dp210
g9
I2
sg10
S"Gamma(1,2,'s1')*ProjM('s1',3) - 2*Gamma(1,2,'s1')*ProjP('s1',3)"
p211
sg11
g207
sg12
(lp212
I3
aI2
aI2
asg14
g4
(g21
g22
(lp213
g4
(g24
g22
(lp214
g4
(g74
g6
NtRp215
(dp216
g29
(lp217
I1
asg31
I1
sg32
(lp218
I2
aS's1'
p219
asg34
g35
((ltRp220
sg37
S'Gamma^{1}_{2,s1}'
p221
sg39
I1
sbag4
(chelas.helasamp_object
ProjM
p222
g6
NtRp223
(dp224
g29
(lp225
sg31
I1
sg32
(lp226
I3
ag219
asg34
g35
((ltRp227
sg37
S'ProjM_{3,s1}'
p228
sg39
I1
sbatRp229
(dp230
g34
g35
((ltRp231
sg39
I1
sbag4
(g24
g22
(lp232
g4
(g74
g6
NtRp233
(dp234
g29
(lp235
I1
asg31
I1
sg32
(lp236
I2
ag219
asg34
g35
((ltRp237
sg37
S'Gamma^{1}_{2,s1}'
p238
sg39
I1
sbag4
(chelas.helasamp_object
ProjP
p239
g6
NtRp240
(dp241
g29
(lp242
sg31
I1
sg32
(lp243
I3
ag219
asg34
g35
((ltRp244
sg37
S'ProjP_{3,s1}'
p245
sg39
I1
sbatRp246
(dp247
g34
g35
((ltRp248
sg39
I-2
sbatRp249
(dp250
g34
g35
((ltRp251
sg39
I1
sbsbs(S'L_7'
p252
I3
tp253
g4
(g5
g6
NtRp254
(dp255
g9
I3
sg10
S"Gamma(1,2,'s1')*ProjM('s1',3) + 2*Gamma(1,2,'s1')*ProjP('s1',3)"
p256
sg11
g252
sg12
(lp257
I3
aI2
aI2
asg14
g4
(g21
g22
(lp258
g4
(g24
g22
(lp259
g4
(g74
g6
NtRp260
(dp261
g29
(lp262
I1
asg31
I1
sg32
(lp263
I2
ag219
asg34
g35
((ltRp264
sg37
S'Gamma^{1}_{2,s1}'
p265
sg39
I1
sbag4
(g222
g6
NtRp266
(dp267
g29
(lp268
sg31
I1
sg32
(lp269
I3
ag219
asg34
g35
((ltRp270
sg37
S'ProjM_{3,s1}'
p271
sg39
I1
sbatRp272
(dp273
g34
g35
((ltRp274
sg39
I1
sbag4
(g24
g22
(lp275
g4
(g74
g6
NtRp276
(dp277
g29
(lp278
I1
asg31
I1
sg32
(lp279
I2
ag219
asg34
g35
((ltRp280
sg37
S'Gamma^{1}_{2,s1}'
p281
sg39
I1
sbag4
(g239
g6
NtRp282
(dp283
g29
(lp284
sg31
I1
sg32
(lp285
I3
ag219
asg34
g35
((ltRp286
sg37
S'ProjP_{3,s1}'
p287
sg39
I1
sbatRp288
(dp289
g34
g35
((ltRp290
sg39
I2
sbatRp291
(dp292
g34
g35
((ltRp293
sg39
I1
sbsbs(S'L_2'
p294
I1
tp295
g4
(g5
g6
NtRp296
(dp297
g9
I1
sg10
S'Identity(2,3)'
p298
sg11
g294
sg12
(lp299
I1
aI2
aI2
asg14
g4
(chelas.helasamp_object
Identity
p300
g6
NtRp301
(dp302
g29
(lp303
sg31
I1
sg32
(lp304
I2
aI3
asg34
g35
((ltRp305
sg37
S'Identity_{2,3}'
p306
sg39
I1
sbsbs(S'L_5'
p307
I0
tp308
g4
(g5
g6
NtRp309
(dp310
g9
I0
sg11
g307
sg72
Nsg10
S"Gamma(1,2,'s1')*ProjM('s1',3)"
p311
sg14
g4
(g24
g22
(lp312
g4
(g74
g6
NtRp313
(dp314
g29
(lp315
I1
asg31
I1
sg32
(lp316
I2
ag219
asg34
g35
((ltRp317
sg37
S'Gamma^{1}_{2,s1}'
p318
sg39
I1
sbag4
(g222
g6
NtRp319
(dp320
g29
(lp321
sg31
I1
sg32
(lp322
I3
ag219
asg34
g35
((ltRp323
sg37
S'ProjM_{3,s1}'
p324
sg39
I1
sbatRp325
(dp326
g34
g35
((ltRp327
sg39
I1
sbsg12
(lp328
I3
aI2
aI2
asbs(S'L_11'
p329
I0
tp330
g4
(g5
g6
NtRp331
(dp332
g9
I0
sg11
g329
sg72
Nsg10
S'Metric(3,4)'
p333
sg14
g4
(g26
g6
NtRp334
(dp335
g29
(lp336
I3
aI4
asg31
I1
sg32
(lp337
sg34
g35
((ltRp338
sg37
S'Metric^{3,4}'
p339
sg39
I1
sbsg12
(lp340
I1
aI1
aI3
aI3
asbs(S'L_14'
p341
I4
tp342
g4
(g5
g6
NtRp343
(dp344
g9
I4
sg10
S'Metric(1,4)*Metric(2,3) - Metric(1,2)*Metric(3,4)'
p345
sg11
g341
sg12
(lp346
I3
aI3
aI3
aI3
asg14
g4
(g21
g22
(lp347
g4
(g24
g22
(lp348
g4
(g26
g6
NtRp349
(dp350
g29
(lp351
I1
aI4
asg31
I1
sg32
(lp352
sg34
g35
((ltRp353
sg37
S'Metric^{1,4}'
p354
sg39
I1
sbag4
(g26
g6
NtRp355
(dp356
g29
(lp357
I2
aI3
asg31
I1
sg32
(lp358
sg34
g35
((ltRp359
sg37
S'Metric^{2,3}'
p360
sg39
I1
sbatRp361
(dp362
g34
g35
((ltRp363
sg39
I1
sbag4
(g24
g22
(lp364
g4
(g26
g6
NtRp365
(dp366
g29
(lp367
I1
aI2
asg31
I1
sg32
(lp368
sg34
g35
((ltRp369
sg37
S'Metric^{1,2}'
p370
sg39
I1
sbag4
(g26
g6
NtRp371
(dp372
g29
(lp373
I3
aI4
asg31
I1
sg32
(lp374
sg34
g35
((ltRp375
sg37
S'Metric^{3,4}'
p376
sg39
I1
sbatRp377
(dp378
g34
g35
((ltRp379
sg39
I-1
sbatRp380
(dp381
g34
g35
((ltRp382
sg39
I1
sbsbs(g2
I1
tp383
g4
(g5
g6
NtRp384
(dp385
g9
I1
sg10
S'1'
sg11
g2
sg12
g13
sg14
I1
sbs(S'L_15'
p386
I1
tp387
g4
(g5
g6
NtRp388
(dp389
g9
I1
sg10
S'Metric(1,3)*Metric(2,4) - Metric(1,2)*Metric(3,4)'
p390
sg11
g386
sg12
(lp391
I3
aI3
aI3
aI3
asg14
g4
(g21
g22
(lp392
g4
(g24
g22
(lp393
g4
(g26
g6
NtRp394
(dp395
g29
(lp396
I1
aI3
asg31
I1
sg32
(lp397
sg34
g35
((ltRp398
sg37
S'Metric^{1,3}'
p399
sg39
I1
sbag4
(g26
g6
NtRp400
(dp401
g29
(lp402
I2
aI4
asg31
I1
sg32
(lp403
sg34
g35
((ltRp404
sg37
S'Metric^{2,4}'
p405
sg39
I1
sbatRp406
(dp407
g34
g35
((ltRp408
sg39
I1
sbag4
(g24
g22
(lp409
g4
(g26
g6
NtRp410
(dp411
g29
(lp412
I1
aI2
asg31
I1
sg32
(lp413
sg34
g35
((ltRp414
sg37
S'Metric^{1,2}'
p415
sg39
I1
sbag4
(g26
g6
NtRp416
(dp417
g29
(lp418
I3
aI4
asg31
I1
sg32
(lp419
sg34
g35
((ltRp420
sg37
S'Metric^{3,4}'
p421
sg39
I1
sbatRp422
(dp423
g34
g35
((ltRp424
sg39
I-1
sbatRp425
(dp426
g34
g35
((ltRp427
sg39
I1
sbsbs(g15
I0
tp428
g4
(g5
g6
NtRp429
(dp430
g9
I0
sg11
g15
sg72
Nsg10
g19
sg14
g65
sg12
g20
sbs(g386
I4
tp431
g4
(g5
g6
NtRp432
(dp433
g9
I4
sg10
g390
sg11
g386
sg12
g391
sg14
g425
sbs(S'L_16'
p434
I3
tp435
g4
(g5
g6
NtRp436
(dp437
g9
I3
sg10
S'Metric(1,4)*Metric(2,3) - (Metric(1,3)*Metric(2,4))/2. - (Metric(1,2)*Metric(3,4))/2.'
p438
sg11
g434
sg12
(lp439
I3
aI3
aI3
aI3
asg14
g4
(g21
g22
(lp440
g4
(g24
g22
(lp441
g4
(g26
g6
NtRp442
(dp443
g29
(lp444
I1
aI4
asg31
I1
sg32
(lp445
sg34
g35
((ltRp446
sg37
S'Metric^{1,4}'
p447
sg39
I1
sbag4
(g26
g6
NtRp448
(dp449
g29
(lp450
I2
aI3
asg31
I1
sg32
(lp451
sg34
g35
((ltRp452
sg37
S'Metric^{2,3}'
p453
sg39
I1
sbatRp454
(dp455
g34
g35
((ltRp456
sg39
I1
sbag4
(g24
g22
(lp457
g4
(g26
g6
NtRp458
(dp459
g29
(lp460
I1
aI3
asg31
I1
sg32
(lp461
sg34
g35
((ltRp462
sg37
S'Metric^{1,3}'
p463
sg39
I1
sbag4
(g26
g6
NtRp464
(dp465
g29
(lp466
I2
aI4
asg31
I1
sg32
(lp467
sg34
g35
((ltRp468
sg37
S'Metric^{2,4}'
p469
sg39
I1
sbatRp470
(dp471
g34
g35
((ltRp472
sg39
F-0.5
sbag4
(g24
g22
(lp473
g4
(g26
g6
NtRp474
(dp475
g29
(lp476
I1
aI2
asg31
I1
sg32
(lp477
sg34
g35
((ltRp478
sg37
S'Metric^{1,2}'
p479
sg39
I1
sbag4
(g26
g6
NtRp480
(dp481
g29
(lp482
I3
aI4
asg31
I1
sg32
(lp483
sg34
g35
((ltRp484
sg37
S'Metric^{3,4}'
p485
sg39
I1
sbatRp486
(dp487
g34
g35
((ltRp488
sg39
F-0.5
sbatRp489
(dp490
g34
g35
((ltRp491
sg39
I1
sbsbs(g82
I2
tp492
g4
(g5
g6
NtRp493
(dp494
g9
I2
sg10
S'1'
sg11
g82
sg12
g86
sg14
I1
sbs(g87
I2
tp495
g4
(g5
g6
NtRp496
(dp497
g9
I2
sg10
g91
sg11
g87
sg12
g206
sg14
g203
sbs(g329
I3
tp498
g4
(g5
g6
NtRp499
(dp500
g9
I3
sg10
g333
sg11
g329
sg12
g340
sg14
g334
sbs(g341
I1
tp501
g4
(g5
g6
NtRp502
(dp503
g9
I1
sg10
g345
sg11
g341
sg12
g346
sg14
g380
sbs(S'L_13'
p504
I0
tp505
g4
(g5
g6
NtRp506
(dp507
g9
I0
sg11
g504
sg72
Nsg10
S'Metric(1,4)*Metric(2,3) + Metric(1,3)*Metric(2,4) - 2*Metric(1,2)*Metric(3,4)'
p508
sg14
g4
(g21
g22
(lp509
g4
(g24
g22
(lp510
g4
(g26
g6
NtRp511
(dp512
g29
(lp513
I1
aI4
asg31
I1
sg32
(lp514
sg34
g35
((ltRp515
sg37
S'Metric^{1,4}'
p516
sg39
I1
sbag4
(g26
g6
NtRp517
(dp518
g29
(lp519
I2
aI3
asg31
I1
sg32
(lp520
sg34
g35
((ltRp521
sg37
S'Metric^{2,3}'
p522
sg39
I1
sbatRp523
(dp524
g34
g35
((ltRp525
sg39
I1
sbag4
(g24
g22
(lp526
g4
(g26
g6
NtRp527
(dp528
g29
(lp529
I1
aI3
asg31
I1
sg32
(lp530
sg34
g35
((ltRp531
sg37
S'Metric^{1,3}'
p532
sg39
I1
sbag4
(g26
g6
NtRp533
(dp534
g29
(lp535
I2
aI4
asg31
I1
sg32
(lp536
sg34
g35
((ltRp537
sg37
S'Metric^{2,4}'
p538
sg39
I1
sbatRp539
(dp540
g34
g35
((ltRp541
sg39
I1
sbag4
(g24
g22
(lp542
g4
(g26
g6
NtRp543
(dp544
g29
(lp545
I1
aI2
asg31
I1
sg32
(lp546
sg34
g35
((ltRp547
sg37
S'Metric^{1,2}'
p548
sg39
I1
sbag4
(g26
g6
NtRp549
(dp550
g29
(lp551
I3
aI4
asg31
I1
sg32
(lp552
sg34
g35
((ltRp553
sg37
S'Metric^{3,4}'
p554
sg39
I1
sbatRp555
(dp556
g34
g35
((ltRp557
sg39
I-2
sbatRp558
(dp559
g34
g35
((ltRp560
sg39
I1
sbsg12
(lp561
I3
aI3
aI3
aI3
asbs(g252
I1
tp562
g4
(g5
g6
NtRp563
(dp564
g9
I1
sg10
g256
sg11
g252
sg12
g257
sg14
g291
sbs(g294
I3
tp565
g4
(g5
g6
NtRp566
(dp567
g9
I3
sg10
g298
sg11
g294
sg12
g299
sg14
g301
sbs(S'L_8'
p568
I3
tp569
g4
(g5
g6
NtRp570
(dp571
g9
I3
sg10
S"Gamma(1,2,'s1')*ProjM('s1',3) + 4*Gamma(1,2,'s1')*ProjP('s1',3)"
p572
sg11
g568
sg12
(lp573
I3
aI2
aI2
asg14
g4
(g21
g22
(lp574
g4
(g24
g22
(lp575
g4
(g74
g6
NtRp576
(dp577
g29
(lp578
I1
asg31
I1
sg32
(lp579
I2
ag219
asg34
g35
((ltRp580
sg37
S'Gamma^{1}_{2,s1}'
p581
sg39
I1
sbag4
(g222
g6
NtRp582
(dp583
g29
(lp584
sg31
I1
sg32
(lp585
I3
ag219
asg34
g35
((ltRp586
sg37
S'ProjM_{3,s1}'
p587
sg39
I1
sbatRp588
(dp589
g34
g35
((ltRp590
sg39
I1
sbag4
(g24
g22
(lp591
g4
(g74
g6
NtRp592
(dp593
g29
(lp594
I1
asg31
I1
sg32
(lp595
I2
ag219
asg34
g35
((ltRp596
sg37
S'Gamma^{1}_{2,s1}'
p597
sg39
I1
sbag4
(g239
g6
NtRp598
(dp599
g29
(lp600
sg31
I1
sg32
(lp601
I3
ag219
asg34
g35
((ltRp602
sg37
S'ProjP_{3,s1}'
p603
sg39
I1
sbatRp604
(dp605
g34
g35
((ltRp606
sg39
I4
sbatRp607
(dp608
g34
g35
((ltRp609
sg39
I1
sbsbs(g307
I2
tp610
g4
(g5
g6
NtRp611
(dp612
g9
I2
sg10
g311
sg11
g307
sg12
g328
sg14
g325
sbs(S'L_3'
p613
I2
tp614
g4
(g5
g6
NtRp615
(dp616
g9
I2
sg10
S'Metric(2,3)'
p617
sg11
g613
sg12
(lp618
I1
aI3
aI3
asg14
g4
(g26
g6
NtRp619
(dp620
g29
(lp621
I2
aI3
asg31
I1
sg32
(lp622
sg34
g35
((ltRp623
sg37
S'Metric^{2,3}'
p624
sg39
I1
sbsbs(g2
I3
tp625
g4
(g5
g6
NtRp626
(dp627
g9
I3
sg10
S'1'
sg11
g2
sg12
g13
sg14
I1
sbs(g434
I4
tp628
g4
(g5
g6
NtRp629
(dp630
g9
I4
sg10
g438
sg11
g434
sg12
g439
sg14
g489
sbs(g68
I3
tp631
g4
(g5
g6
NtRp632
(dp633
g9
I3
sg10
g73
sg11
g68
sg12
g81
sg14
g75
sbs(g87
I1
tp634
g4
(g5
g6
NtRp635
(dp636
g9
I1
sg10
g91
sg11
g87
sg12
g206
sg14
g203
sbs(g207
I1
tp637
g4
(g5
g6
NtRp638
(dp639
g9
I1
sg10
g211
sg11
g207
sg12
g212
sg14
g249
sbs(g434
I1
tp640
g4
(g5
g6
NtRp641
(dp642
g9
I1
sg10
g438
sg11
g434
sg12
g439
sg14
g489
sbs(g294
I0
tp643
g4
(g5
g6
NtRp644
(dp645
g9
I0
sg11
g294
sg72
Nsg10
g298
sg14
g301
sg12
g299
sbs(g307
I1
tp646
g4
(g5
g6
NtRp647
(dp648
g9
I1
sg10
g311
sg11
g307
sg12
g328
sg14
g325
sbs(g329
I1
tp649
g4
(g5
g6
NtRp650
(dp651
g9
I1
sg10
g333
sg11
g329
sg12
g340
sg14
g334
sbs(g341
I3
tp652
g4
(g5
g6
NtRp653
(dp654
g9
I3
sg10
g345
sg11
g341
sg12
g346
sg14
g380
sbs(g504
I2
tp655
g4
(g5
g6
NtRp656
(dp657
g9
I2
sg10
g508
sg11
g504
sg12
g561
sg14
g558
sbs(g386
I2
tp658
g4
(g5
g6
NtRp659
(dp660
g9
I2
sg10
g390
sg11
g386
sg12
g391
sg14
g425
sbs(g568
I1
tp661
g4
(g5
g6
NtRp662
(dp663
g9
I1
sg10
g572
sg11
g568
sg12
g573
sg14
g607
sbs(g613
I0
tp664
g4
(g5
g6
NtRp665
(dp666
g9
I0
sg11
g613
sg72
Nsg10
g617
sg14
g619
sg12
g618
sbs(g82
I4
tp667
g4
(g5
g6
NtRp668
(dp669
g9
I4
sg10
S'1'
sg11
g82
sg12
g86
sg14
I1
sbs(g15
I3
tp670
g4
(g5
g6
NtRp671
(dp672
g9
I3
sg10
g19
sg11
g15
sg12
g20
sg14
g65
sbs(g434
I2
tp673
g4
(g5
g6
NtRp674
(dp675
g9
I2
sg10
g438
sg11
g434
sg12
g439
sg14
g489
sbs(g68
I1
tp676
g4
(g5
g6
NtRp677
(dp678
g9
I1
sg10
g73
sg11
g68
sg12
g81
sg14
g75
sbs(g82
I1
tp679
g4
(g5
g6
NtRp680
(dp681
g9
I1
sg10
S'1'
sg11
g82
sg12
g86
sg14
I1
sbs(g87
I3
tp682
g4
(g5
g6
NtRp683
(dp684
g9
I3
sg10
g91
sg11
g87
sg12
g206
sg14
g203
sbs(g15
I4
tp685
g4
(g5
g6
NtRp686
(dp687
g9
I4
sg10
g19
sg11
g15
sg12
g20
sg14
g65
sbs(g329
I4
tp688
g4
(g5
g6
NtRp689
(dp690
g9
I4
sg10
g333
sg11
g329
sg12
g340
sg14
g334
sbs(g341
I0
tp691
g4
(g5
g6
NtRp692
(dp693
g9
I0
sg11
g341
sg72
Nsg10
g345
sg14
g380
sg12
g346
sbs(g207
I3
tp694
g4
(g5
g6
NtRp695
(dp696
g9
I3
sg10
g211
sg11
g207
sg12
g212
sg14
g249
sbs(g504
I1
tp697
g4
(g5
g6
NtRp698
(dp699
g9
I1
sg10
g508
sg11
g504
sg12
g561
sg14
g558
sbs(g252
I2
tp700
g4
(g5
g6
NtRp701
(dp702
g9
I2
sg10
g256
sg11
g252
sg12
g257
sg14
g291
sbs(g294
I2
tp703
g4
(g5
g6
NtRp704
(dp705
g9
I2
sg10
g298
sg11
g294
sg12
g299
sg14
g301
sbs(g568
I2
tp706
g4
(g5
g6
NtRp707
(dp708
g9
I2
sg10
g572
sg11
g568
sg12
g573
sg14
g607
sbs(g307
I3
tp709
g4
(g5
g6
NtRp710
(dp711
g9
I3
sg10
g311
sg11
g307
sg12
g328
sg14
g325
sbs(g613
I3
tp712
g4
(g5
g6
NtRp713
(dp714
g9
I3
sg10
g617
sg11
g613
sg12
g618
sg14
g619
sbs(g2
I0
tp715
g4
(g5
g6
NtRp716
(dp717
g9
I0
sg11
g2
sg72
Nsg10
S'1'
sg14
I1
sg12
g13
sbs(g386
I0
tp718
g4
(g5
g6
NtRp719
(dp720
g9
I0
sg11
g386
sg72
Nsg10
g390
sg14
g425
sg12
g391
sbs(g68
I2
tp721
g4
(g5
g6
NtRp722
(dp723
g9
I2
sg10
g73
sg11
g68
sg12
g81
sg14
g75
sbs(g15
I1
tp724
g4
(g5
g6
NtRp725
(dp726
g9
I1
sg10
g19
sg11
g15
sg12
g20
sg14
g65
sbs(g207
I0
tp727
g4
(g5
g6
NtRp728
(dp729
g9
I0
sg11
g207
sg72
Nsg10
g211
sg14
g249
sg12
g212
sbs(g504
I4
tp730
g4
(g5
g6
NtRp731
(dp732
g9
I4
sg10
g508
sg11
g504
sg12
g561
sg14
g558
sbs(g434
I0
tp733
g4
(g5
g6
NtRp734
(dp735
g9
I0
sg11
g434
sg72
Nsg10
g438
sg14
g489
sg12
g439
sbs(g82
I3
tp736
g4
(g5
g6
NtRp737
(dp738
g9
I3
sg10
S'1'
sg11
g82
sg12
g86
sg14
I1
sbs(g329
I2
tp739
g4
(g5
g6
NtRp740
(dp741
g9
I2
sg10
g333
sg11
g329
sg12
g340
sg14
g334
sbs(g341
I2
tp742
g4
(g5
g6
NtRp743
(dp744
g9
I2
sg10
g345
sg11
g341
sg12
g346
sg14
g380
sbs(g504
I3
tp745
g4
(g5
g6
NtRp746
(dp747
g9
I3
sg10
g508
sg11
g504
sg12
g561
sg14
g558
sbs(g386
I3
tp748
g4
(g5
g6
NtRp749
(dp750
g9
I3
sg10
g390
sg11
g386
sg12
g391
sg14
g425
sbs(g252
I0
tp751
g4
(g5
g6
NtRp752
(dp753
g9
I0
sg11
g252
sg72
Nsg10
g256
sg14
g291
sg12
g257
sbs(g568
I0
tp754
g4
(g5
g6
NtRp755
(dp756
g9
I0
sg11
g568
sg72
Nsg10
g572
sg14
g607
sg12
g573
sbs(g613
I1
tp757
g4
(g5
g6
NtRp758
(dp759
g9
I1
sg10
g617
sg11
g613
sg12
g618
sg14
g619
sbs.